

Microchip MPLAB XC8 Assembler V2.45 build 20230818022343 
                                                                                               Tue Oct 17 02:18:17 2023

Microchip MPLAB XC8 C Compiler v2.45 (Free license) build 20230818022343 Og1 
     1                           	processor	16F877A
     2                           	pagewidth 120
     3                           	opt	flic
     4                           	psect	idataCOMMON,global,class=CODE,delta=2,noexec
     5                           	psect	idataBANK0,global,class=CODE,delta=2,noexec
     6                           	psect	strings,global,class=STRING,delta=2,noexec
     7                           	psect	cinit,global,class=CODE,merge=1,delta=2
     8                           	psect	dataCOMMON,global,class=COMMON,space=1,delta=1,noexec
     9                           	psect	bssBANK0,global,class=BANK0,space=1,delta=1,noexec
    10                           	psect	dataBANK0,global,class=BANK0,space=1,delta=1,noexec
    11                           	psect	cstackCOMMON,global,class=COMMON,space=1,delta=1,noexec
    12                           	psect	cstackBANK0,global,class=BANK0,space=1,delta=1,noexec
    13                           	psect	maintext,global,class=CODE,split=1,delta=2
    14                           	psect	text1,local,class=CODE,merge=1,delta=2
    15                           	psect	text2,local,class=CODE,merge=1,delta=2
    16                           	psect	text3,local,class=CODE,merge=1,delta=2
    17                           	psect	text4,local,class=CODE,merge=1,delta=2
    18                           	psect	text5,local,class=CODE,merge=1,delta=2,group=1
    19                           	psect	text6,local,class=CODE,merge=1,delta=2,group=1
    20                           	psect	text7,local,class=CODE,merge=1,delta=2,group=1
    21                           	psect	text8,local,class=CODE,merge=1,delta=2
    22                           	psect	text9,local,class=CODE,merge=1,delta=2
    23                           	psect	text10,local,class=CODE,merge=1,delta=2
    24                           	psect	text11,local,class=CODE,merge=1,delta=2
    25                           	psect	text12,local,class=CODE,merge=1,delta=2
    26                           	psect	text13,local,class=CODE,merge=1,delta=2
    27                           	psect	text14,local,class=CODE,merge=1,delta=2
    28                           	psect	text15,local,class=CODE,merge=1,delta=2
    29                           	psect	text16,local,class=CODE,merge=1,delta=2
    30                           	psect	text17,local,class=CODE,merge=1,delta=2
    31                           	psect	text18,local,class=CODE,merge=1,delta=2
    32                           	psect	text19,local,class=CODE,merge=1,delta=2
    33                           	psect	text20,local,class=CODE,merge=1,delta=2
    34                           	psect	intentry,global,class=CODE,delta=2
    35                           	psect	config,global,abs,ovrld,class=CONFIG,space=4,delta=2,noexec
    36                           	dabs	1,0x7E,2
    37     0000                     
    38                           ; Generated 22/03/2023 GMT
    39                           ; 
    40                           ; Copyright © 2023, Microchip Technology Inc. and its subsidiaries ("Microchip")
    41                           ; All rights reserved.
    42                           ; 
    43                           ; This software is developed by Microchip Technology Inc. and its subsidiaries ("Microch
      +                          ip").
    44                           ; 
    45                           ; Redistribution and use in source and binary forms, with or without modification, are
    46                           ; permitted provided that the following conditions are met:
    47                           ; 
    48                           ;     1. Redistributions of source code must retain the above copyright notice, this lis
      +                          t of
    49                           ;        conditions and the following disclaimer.
    50                           ; 
    51                           ;     2. Redistributions in binary form must reproduce the above copyright notice, this 
      +                          list
    52                           ;        of conditions and the following disclaimer in the documentation and/or other
    53                           ;        materials provided with the distribution. Publication is not required when
    54                           ;        this file is used in an embedded application.
    55                           ; 
    56                           ;     3. Microchip's name may not be used to endorse or promote products derived from th
      +                          is
    57                           ;        software without specific prior written permission.
    58                           ; 
    59                           ; THIS SOFTWARE IS PROVIDED BY MICROCHIP "AS IS" AND ANY EXPRESS OR IMPLIED WARRANTIES,
    60                           ; INCLUDING, BUT NOT LIMITED TO, THE IMPLIED WARRANTIES OF MERCHANTABILITY AND FITNESS F
      +                          OR
    61                           ; PURPOSE ARE DISCLAIMED.  IN NO EVENT SHALL MICROCHIP BE LIABLE FOR ANY DIRECT, INDIREC
      +                          T,
    62                           ; INCIDENTAL, SPECIAL, EXEMPLARY, OR CONSEQUENTIAL DAMAGES (INCLUDING BUT NOT LIMITED TO
    63                           ; PROCUREMENT OF SUBSTITUTE GOODS OR SERVICES; LOSS OF USE, DATA OR PROFITS; OR BUSINESS
    64                           ; INTERRUPTION) HOWSOEVER CAUSED AND ON ANY THEORY OF LIABILITY, WHETHER IN CONTRACT, ST
      +                          RICT
    65                           ; LIABILITY, OR TORT (INCLUDING NEGLIGENCE OR OTHERWISE) ARISING IN ANY WAY OUT OF THE U
      +                          SE OF
    66                           ; THIS SOFTWARE, EVEN IF ADVISED OF THE POSSIBILITY OF SUCH DAMAGE.
    67                           ; 
    68                           ; 
    69                           ; Code-generator required, PIC16F877A Definitions
    70                           ; 
    71                           ; SFR Addresses
    72     0000                     	;# 
    73     0001                     	;# 
    74     0002                     	;# 
    75     0003                     	;# 
    76     0004                     	;# 
    77     0005                     	;# 
    78     0006                     	;# 
    79     0007                     	;# 
    80     0008                     	;# 
    81     0009                     	;# 
    82     000A                     	;# 
    83     000B                     	;# 
    84     000C                     	;# 
    85     000D                     	;# 
    86     000E                     	;# 
    87     000E                     	;# 
    88     000F                     	;# 
    89     0010                     	;# 
    90     0011                     	;# 
    91     0012                     	;# 
    92     0013                     	;# 
    93     0014                     	;# 
    94     0015                     	;# 
    95     0015                     	;# 
    96     0016                     	;# 
    97     0017                     	;# 
    98     0018                     	;# 
    99     0019                     	;# 
   100     001A                     	;# 
   101     001B                     	;# 
   102     001B                     	;# 
   103     001C                     	;# 
   104     001D                     	;# 
   105     001E                     	;# 
   106     001F                     	;# 
   107     0081                     	;# 
   108     0085                     	;# 
   109     0086                     	;# 
   110     0087                     	;# 
   111     0088                     	;# 
   112     0089                     	;# 
   113     008C                     	;# 
   114     008D                     	;# 
   115     008E                     	;# 
   116     0091                     	;# 
   117     0092                     	;# 
   118     0093                     	;# 
   119     0094                     	;# 
   120     0098                     	;# 
   121     0099                     	;# 
   122     009C                     	;# 
   123     009D                     	;# 
   124     009E                     	;# 
   125     009F                     	;# 
   126     010C                     	;# 
   127     010D                     	;# 
   128     010E                     	;# 
   129     010F                     	;# 
   130     018C                     	;# 
   131     018D                     	;# 
   132     0000                     	;# 
   133     0001                     	;# 
   134     0002                     	;# 
   135     0003                     	;# 
   136     0004                     	;# 
   137     0005                     	;# 
   138     0006                     	;# 
   139     0007                     	;# 
   140     0008                     	;# 
   141     0009                     	;# 
   142     000A                     	;# 
   143     000B                     	;# 
   144     000C                     	;# 
   145     000D                     	;# 
   146     000E                     	;# 
   147     000E                     	;# 
   148     000F                     	;# 
   149     0010                     	;# 
   150     0011                     	;# 
   151     0012                     	;# 
   152     0013                     	;# 
   153     0014                     	;# 
   154     0015                     	;# 
   155     0015                     	;# 
   156     0016                     	;# 
   157     0017                     	;# 
   158     0018                     	;# 
   159     0019                     	;# 
   160     001A                     	;# 
   161     001B                     	;# 
   162     001B                     	;# 
   163     001C                     	;# 
   164     001D                     	;# 
   165     001E                     	;# 
   166     001F                     	;# 
   167     0081                     	;# 
   168     0085                     	;# 
   169     0086                     	;# 
   170     0087                     	;# 
   171     0088                     	;# 
   172     0089                     	;# 
   173     008C                     	;# 
   174     008D                     	;# 
   175     008E                     	;# 
   176     0091                     	;# 
   177     0092                     	;# 
   178     0093                     	;# 
   179     0094                     	;# 
   180     0098                     	;# 
   181     0099                     	;# 
   182     009C                     	;# 
   183     009D                     	;# 
   184     009E                     	;# 
   185     009F                     	;# 
   186     010C                     	;# 
   187     010D                     	;# 
   188     010E                     	;# 
   189     010F                     	;# 
   190     018C                     	;# 
   191     018D                     	;# 
   192     0000                     	;# 
   193     0001                     	;# 
   194     0002                     	;# 
   195     0003                     	;# 
   196     0004                     	;# 
   197     0005                     	;# 
   198     0006                     	;# 
   199     0007                     	;# 
   200     0008                     	;# 
   201     0009                     	;# 
   202     000A                     	;# 
   203     000B                     	;# 
   204     000C                     	;# 
   205     000D                     	;# 
   206     000E                     	;# 
   207     000E                     	;# 
   208     000F                     	;# 
   209     0010                     	;# 
   210     0011                     	;# 
   211     0012                     	;# 
   212     0013                     	;# 
   213     0014                     	;# 
   214     0015                     	;# 
   215     0015                     	;# 
   216     0016                     	;# 
   217     0017                     	;# 
   218     0018                     	;# 
   219     0019                     	;# 
   220     001A                     	;# 
   221     001B                     	;# 
   222     001B                     	;# 
   223     001C                     	;# 
   224     001D                     	;# 
   225     001E                     	;# 
   226     001F                     	;# 
   227     0081                     	;# 
   228     0085                     	;# 
   229     0086                     	;# 
   230     0087                     	;# 
   231     0088                     	;# 
   232     0089                     	;# 
   233     008C                     	;# 
   234     008D                     	;# 
   235     008E                     	;# 
   236     0091                     	;# 
   237     0092                     	;# 
   238     0093                     	;# 
   239     0094                     	;# 
   240     0098                     	;# 
   241     0099                     	;# 
   242     009C                     	;# 
   243     009D                     	;# 
   244     009E                     	;# 
   245     009F                     	;# 
   246     010C                     	;# 
   247     010D                     	;# 
   248     010E                     	;# 
   249     010F                     	;# 
   250     018C                     	;# 
   251     018D                     	;# 
   252     0000                     	;# 
   253     0001                     	;# 
   254     0002                     	;# 
   255     0003                     	;# 
   256     0004                     	;# 
   257     0005                     	;# 
   258     0006                     	;# 
   259     0007                     	;# 
   260     0008                     	;# 
   261     0009                     	;# 
   262     000A                     	;# 
   263     000B                     	;# 
   264     000C                     	;# 
   265     000D                     	;# 
   266     000E                     	;# 
   267     000E                     	;# 
   268     000F                     	;# 
   269     0010                     	;# 
   270     0011                     	;# 
   271     0012                     	;# 
   272     0013                     	;# 
   273     0014                     	;# 
   274     0015                     	;# 
   275     0015                     	;# 
   276     0016                     	;# 
   277     0017                     	;# 
   278     0018                     	;# 
   279     0019                     	;# 
   280     001A                     	;# 
   281     001B                     	;# 
   282     001B                     	;# 
   283     001C                     	;# 
   284     001D                     	;# 
   285     001E                     	;# 
   286     001F                     	;# 
   287     0081                     	;# 
   288     0085                     	;# 
   289     0086                     	;# 
   290     0087                     	;# 
   291     0088                     	;# 
   292     0089                     	;# 
   293     008C                     	;# 
   294     008D                     	;# 
   295     008E                     	;# 
   296     0091                     	;# 
   297     0092                     	;# 
   298     0093                     	;# 
   299     0094                     	;# 
   300     0098                     	;# 
   301     0099                     	;# 
   302     009C                     	;# 
   303     009D                     	;# 
   304     009E                     	;# 
   305     009F                     	;# 
   306     010C                     	;# 
   307     010D                     	;# 
   308     010E                     	;# 
   309     010F                     	;# 
   310     018C                     	;# 
   311     018D                     	;# 
   312     0000                     	;# 
   313     0001                     	;# 
   314     0002                     	;# 
   315     0003                     	;# 
   316     0004                     	;# 
   317     0005                     	;# 
   318     0006                     	;# 
   319     0007                     	;# 
   320     0008                     	;# 
   321     0009                     	;# 
   322     000A                     	;# 
   323     000B                     	;# 
   324     000C                     	;# 
   325     000D                     	;# 
   326     000E                     	;# 
   327     000E                     	;# 
   328     000F                     	;# 
   329     0010                     	;# 
   330     0011                     	;# 
   331     0012                     	;# 
   332     0013                     	;# 
   333     0014                     	;# 
   334     0015                     	;# 
   335     0015                     	;# 
   336     0016                     	;# 
   337     0017                     	;# 
   338     0018                     	;# 
   339     0019                     	;# 
   340     001A                     	;# 
   341     001B                     	;# 
   342     001B                     	;# 
   343     001C                     	;# 
   344     001D                     	;# 
   345     001E                     	;# 
   346     001F                     	;# 
   347     0081                     	;# 
   348     0085                     	;# 
   349     0086                     	;# 
   350     0087                     	;# 
   351     0088                     	;# 
   352     0089                     	;# 
   353     008C                     	;# 
   354     008D                     	;# 
   355     008E                     	;# 
   356     0091                     	;# 
   357     0092                     	;# 
   358     0093                     	;# 
   359     0094                     	;# 
   360     0098                     	;# 
   361     0099                     	;# 
   362     009C                     	;# 
   363     009D                     	;# 
   364     009E                     	;# 
   365     009F                     	;# 
   366     010C                     	;# 
   367     010D                     	;# 
   368     010E                     	;# 
   369     010F                     	;# 
   370     018C                     	;# 
   371     018D                     	;# 
   372     0000                     	;# 
   373     0001                     	;# 
   374     0002                     	;# 
   375     0003                     	;# 
   376     0004                     	;# 
   377     0005                     	;# 
   378     0006                     	;# 
   379     0007                     	;# 
   380     0008                     	;# 
   381     0009                     	;# 
   382     000A                     	;# 
   383     000B                     	;# 
   384     000C                     	;# 
   385     000D                     	;# 
   386     000E                     	;# 
   387     000E                     	;# 
   388     000F                     	;# 
   389     0010                     	;# 
   390     0011                     	;# 
   391     0012                     	;# 
   392     0013                     	;# 
   393     0014                     	;# 
   394     0015                     	;# 
   395     0015                     	;# 
   396     0016                     	;# 
   397     0017                     	;# 
   398     0018                     	;# 
   399     0019                     	;# 
   400     001A                     	;# 
   401     001B                     	;# 
   402     001B                     	;# 
   403     001C                     	;# 
   404     001D                     	;# 
   405     001E                     	;# 
   406     001F                     	;# 
   407     0081                     	;# 
   408     0085                     	;# 
   409     0086                     	;# 
   410     0087                     	;# 
   411     0088                     	;# 
   412     0089                     	;# 
   413     008C                     	;# 
   414     008D                     	;# 
   415     008E                     	;# 
   416     0091                     	;# 
   417     0092                     	;# 
   418     0093                     	;# 
   419     0094                     	;# 
   420     0098                     	;# 
   421     0099                     	;# 
   422     009C                     	;# 
   423     009D                     	;# 
   424     009E                     	;# 
   425     009F                     	;# 
   426     010C                     	;# 
   427     010D                     	;# 
   428     010E                     	;# 
   429     010F                     	;# 
   430     018C                     	;# 
   431     018D                     	;# 
   432                           
   433                           	psect	idataCOMMON
   434     07FF                     __pidataCOMMON:
   435                           
   436                           ;initializer for read_matrix_keypad@once
   437     07FF  3401               	retlw	1
   438                           
   439                           	psect	idataBANK0
   440     0E7D                     __pidataBANK0:
   441                           
   442                           ;initializer for _operation_flag
   443     0E7D  3401               	retlw	1
   444     0E7E  3400               	retlw	0
   445     0008                     _PORTD	set	8
   446     0061                     _TMR2IF	set	97
   447     0091                     _T2CKPS1	set	145
   448     0090                     _T2CKPS0	set	144
   449     0032                     _RB2	set	50
   450     0031                     _RB1	set	49
   451     0030                     _RB0	set	48
   452     0040                     _RD0	set	64
   453     0041                     _RD1	set	65
   454     0042                     _RD2	set	66
   455     0043                     _RD3	set	67
   456     0049                     _RE1	set	73
   457     004A                     _RE2	set	74
   458     0092                     _TMR2ON	set	146
   459     0039                     _RC1	set	57
   460     005F                     _GIE	set	95
   461     005E                     _PEIE	set	94
   462     003A                     _RC2	set	58
   463     0092                     _PR2	set	146
   464     0086                     _TRISB	set	134
   465     0088                     _TRISD	set	136
   466     0461                     _TMR2IE	set	1121
   467     040F                     _nRBPU	set	1039
   468     0449                     _TRISE1	set	1097
   469     044A                     _TRISE2	set	1098
   470     0439                     _TRISC1	set	1081
   471     043A                     _TRISC2	set	1082
   472                           
   473                           	psect	strings
   474     0500                     __pstrings:
   475     0500                     stringtab:
   476     0500                     __stringtab:
   477     0500                     stringcode:	
   478                           ;	String table - string pointers are 1 byte each
   479                           
   480     0500                     stringdir:
   481     0500  3005               	movlw	high stringdir
   482     0501  008A               	movwf	10
   483     0502  0804               	movf	4,w
   484     0503  0A84               	incf	4,f
   485     0504  0782               	addwf	2,f
   486     0505                     __stringbase:
   487     0505  3400               	retlw	0
   488     0506                     __end_of__stringtab:
   489     0506                     STR_11:
   490     0506  3420               	retlw	32	;' '
   491     0507  3420               	retlw	32	;' '
   492     0508  3450               	retlw	80	;'P'
   493     0509  346F               	retlw	111	;'o'
   494     050A  3477               	retlw	119	;'w'
   495     050B  3465               	retlw	101	;'e'
   496     050C  3472               	retlw	114	;'r'
   497     050D  3469               	retlw	105	;'i'
   498     050E  346E               	retlw	110	;'n'
   499     050F  3467               	retlw	103	;'g'
   500     0510  3420               	retlw	32	;' '
   501     0511  344F               	retlw	79	;'O'
   502     0512  344E               	retlw	78	;'N'
   503     0513  3420               	retlw	32	;' '
   504     0514  3420               	retlw	32	;' '
   505     0515  3420               	retlw	32	;' '
   506     0516  3400               	retlw	0
   507     0517                     STR_1:
   508     0517  3420               	retlw	32	;' '
   509     0518  3450               	retlw	80	;'P'
   510     0519  346F               	retlw	111	;'o'
   511     051A  3477               	retlw	119	;'w'
   512     051B  3465               	retlw	101	;'e'
   513     051C  3472               	retlw	114	;'r'
   514     051D  3420               	retlw	32	;' '
   515     051E  343D               	retlw	61	;'='
   516     051F  3420               	retlw	32	;' '
   517     0520  3439               	retlw	57	;'9'
   518     0521  3430               	retlw	48	;'0'
   519     0522  3430               	retlw	48	;'0'
   520     0523  3457               	retlw	87	;'W'
   521     0524  3420               	retlw	32	;' '
   522     0525  3420               	retlw	32	;' '
   523     0526  3420               	retlw	32	;' '
   524     0527  3400               	retlw	0
   525     0528                     STR_12:
   526     0528  3420               	retlw	32	;' '
   527     0529  344D               	retlw	77	;'M'
   528     052A  3469               	retlw	105	;'i'
   529     052B  3463               	retlw	99	;'c'
   530     052C  3472               	retlw	114	;'r'
   531     052D  346F               	retlw	111	;'o'
   532     052E  3477               	retlw	119	;'w'
   533     052F  3461               	retlw	97	;'a'
   534     0530  3476               	retlw	118	;'v'
   535     0531  3465               	retlw	101	;'e'
   536     0532  3420               	retlw	32	;' '
   537     0533  344F               	retlw	79	;'O'
   538     0534  3476               	retlw	118	;'v'
   539     0535  3465               	retlw	101	;'e'
   540     0536  346E               	retlw	110	;'n'
   541     0537  3420               	retlw	32	;' '
   542     0538  3400               	retlw	0
   543     0539                     STR_19:
   544     0539  3453               	retlw	83	;'S'
   545     053A  3445               	retlw	69	;'E'
   546     053B  3454               	retlw	84	;'T'
   547     053C  3420               	retlw	32	;' '
   548     053D  3454               	retlw	84	;'T'
   549     053E  3449               	retlw	73	;'I'
   550     053F  344D               	retlw	77	;'M'
   551     0540  3445               	retlw	69	;'E'
   552     0541  3420               	retlw	32	;' '
   553     0542  3428               	retlw	40	;'('
   554     0543  344D               	retlw	77	;'M'
   555     0544  344D               	retlw	77	;'M'
   556     0545  343A               	retlw	58	;':'
   557     0546  3453               	retlw	83	;'S'
   558     0547  3453               	retlw	83	;'S'
   559     0548  3429               	retlw	41	;')'
   560     0549  3400               	retlw	0
   561     054A                     STR_15:
   562     054A  342A               	retlw	42	;'*'
   563     054B  343A               	retlw	58	;':'
   564     054C  3443               	retlw	67	;'C'
   565     054D  344C               	retlw	76	;'L'
   566     054E  3445               	retlw	69	;'E'
   567     054F  3441               	retlw	65	;'A'
   568     0550  3452               	retlw	82	;'R'
   569     0551  3420               	retlw	32	;' '
   570     0552  3420               	retlw	32	;' '
   571     0553  3423               	retlw	35	;'#'
   572     0554  343A               	retlw	58	;':'
   573     0555  3445               	retlw	69	;'E'
   574     0556  344E               	retlw	78	;'N'
   575     0557  3454               	retlw	84	;'T'
   576     0558  3445               	retlw	69	;'E'
   577     0559  3452               	retlw	82	;'R'
   578     055A  3400               	retlw	0
   579     055B                     STR_3:
   580     055B  3420               	retlw	32	;' '
   581     055C  3434               	retlw	52	;'4'
   582     055D  342E               	retlw	46	;'.'
   583     055E  3453               	retlw	83	;'S'
   584     055F  3474               	retlw	116	;'t'
   585     0560  3461               	retlw	97	;'a'
   586     0561  3472               	retlw	114	;'r'
   587     0562  3474               	retlw	116	;'t'
   588     0563  342F               	retlw	47	;'/'
   589     0564  3452               	retlw	82	;'R'
   590     0565  3465               	retlw	101	;'e'
   591     0566  3473               	retlw	115	;'s'
   592     0567  3475               	retlw	117	;'u'
   593     0568  346D               	retlw	109	;'m'
   594     0569  3465               	retlw	101	;'e'
   595     056A  3400               	retlw	0
   596     056B                     STR_13:
   597     056B  3420               	retlw	32	;' '
   598     056C  3453               	retlw	83	;'S'
   599     056D  3445               	retlw	69	;'E'
   600     056E  3454               	retlw	84	;'T'
   601     056F  3420               	retlw	32	;' '
   602     0570  3454               	retlw	84	;'T'
   603     0571  3445               	retlw	69	;'E'
   604     0572  344D               	retlw	77	;'M'
   605     0573  3450               	retlw	80	;'P'
   606     0574  3428               	retlw	40	;'('
   607     0575  346F               	retlw	111	;'o'
   608     0576  3443               	retlw	67	;'C'
   609     0577  3429               	retlw	41	;')'
   610     0578  3420               	retlw	32	;' '
   611     0579  3400               	retlw	0
   612     057A                     STR_16:
   613     057A  3420               	retlw	32	;' '
   614     057B  3420               	retlw	32	;' '
   615     057C  3450               	retlw	80	;'P'
   616     057D  3472               	retlw	114	;'r'
   617     057E  3465               	retlw	101	;'e'
   618     057F  342D               	retlw	45	;'-'
   619     0580  3448               	retlw	72	;'H'
   620     0581  3465               	retlw	101	;'e'
   621     0582  3461               	retlw	97	;'a'
   622     0583  3474               	retlw	116	;'t'
   623     0584  3469               	retlw	105	;'i'
   624     0585  346E               	retlw	110	;'n'
   625     0586  3467               	retlw	103	;'g'
   626     0587  3420               	retlw	32	;' '
   627     0588  3400               	retlw	0
   628     0589                     STR_6:
   629     0589  3420               	retlw	32	;' '
   630     058A  3420               	retlw	32	;' '
   631     058B  3454               	retlw	84	;'T'
   632     058C  3469               	retlw	105	;'i'
   633     058D  346D               	retlw	109	;'m'
   634     058E  3465               	retlw	101	;'e'
   635     058F  3472               	retlw	114	;'r'
   636     0590  3420               	retlw	32	;' '
   637     0591  3455               	retlw	85	;'U'
   638     0592  3470               	retlw	112	;'p'
   639     0593  3420               	retlw	32	;' '
   640     0594  3421               	retlw	33	;'!'
   641     0595  3421               	retlw	33	;'!'
   642     0596  3400               	retlw	0
   643     0597                     STR_9:
   644     0597  3433               	retlw	51	;'3'
   645     0598  342E               	retlw	46	;'.'
   646     0599  3443               	retlw	67	;'C'
   647     059A  346F               	retlw	111	;'o'
   648     059B  346E               	retlw	110	;'n'
   649     059C  3476               	retlw	118	;'v'
   650     059D  3465               	retlw	101	;'e'
   651     059E  3463               	retlw	99	;'c'
   652     059F  3474               	retlw	116	;'t'
   653     05A0  3469               	retlw	105	;'i'
   654     05A1  346F               	retlw	111	;'o'
   655     05A2  346E               	retlw	110	;'n'
   656     05A3  3400               	retlw	0
   657     05A4                     STR_17:
   658     05A4  3454               	retlw	84	;'T'
   659     05A5  3469               	retlw	105	;'i'
   660     05A6  346D               	retlw	109	;'m'
   661     05A7  3465               	retlw	101	;'e'
   662     05A8  3420               	retlw	32	;' '
   663     05A9  3452               	retlw	82	;'R'
   664     05AA  3465               	retlw	101	;'e'
   665     05AB  346D               	retlw	109	;'m'
   666     05AC  342E               	retlw	46	;'.'
   667     05AD  343D               	retlw	61	;'='
   668     05AE  3420               	retlw	32	;' '
   669     05AF  3400               	retlw	0
   670     05B0                     STR_2:
   671     05B0  3420               	retlw	32	;' '
   672     05B1  3454               	retlw	84	;'T'
   673     05B2  3449               	retlw	73	;'I'
   674     05B3  344D               	retlw	77	;'M'
   675     05B4  3445               	retlw	69	;'E'
   676     05B5  3420               	retlw	32	;' '
   677     05B6  343D               	retlw	61	;'='
   678     05B7  3420               	retlw	32	;' '
   679     05B8  3420               	retlw	32	;' '
   680     05B9  3400               	retlw	0
   681     05BA                     STR_14:
   682     05BA  3420               	retlw	32	;' '
   683     05BB  3454               	retlw	84	;'T'
   684     05BC  3445               	retlw	69	;'E'
   685     05BD  344D               	retlw	77	;'M'
   686     05BE  3450               	retlw	80	;'P'
   687     05BF  3420               	retlw	32	;' '
   688     05C0  343D               	retlw	61	;'='
   689     05C1  3420               	retlw	32	;' '
   690     05C2  3400               	retlw	0
   691     05C3                     STR_4:
   692     05C3  3420               	retlw	32	;' '
   693     05C4  3435               	retlw	53	;'5'
   694     05C5  342E               	retlw	46	;'.'
   695     05C6  3450               	retlw	80	;'P'
   696     05C7  3461               	retlw	97	;'a'
   697     05C8  3475               	retlw	117	;'u'
   698     05C9  3473               	retlw	115	;'s'
   699     05CA  3465               	retlw	101	;'e'
   700     05CB  3400               	retlw	0
   701     05CC                     STR_8:
   702     05CC  3432               	retlw	50	;'2'
   703     05CD  342E               	retlw	46	;'.'
   704     05CE  3447               	retlw	71	;'G'
   705     05CF  3472               	retlw	114	;'r'
   706     05D0  3469               	retlw	105	;'i'
   707     05D1  346C               	retlw	108	;'l'
   708     05D2  346C               	retlw	108	;'l'
   709     05D3  3400               	retlw	0
   710     05D4                     STR_7:
   711     05D4  3431               	retlw	49	;'1'
   712     05D5  342E               	retlw	46	;'.'
   713     05D6  344D               	retlw	77	;'M'
   714     05D7  3469               	retlw	105	;'i'
   715     05D8  3463               	retlw	99	;'c'
   716     05D9  3472               	retlw	114	;'r'
   717     05DA  346F               	retlw	111	;'o'
   718     05DB  3400               	retlw	0
   719     05DC                     STR_5:
   720     05DC  3420               	retlw	32	;' '
   721     05DD  3436               	retlw	54	;'6'
   722     05DE  342E               	retlw	46	;'.'
   723     05DF  3453               	retlw	83	;'S'
   724     05E0  3474               	retlw	116	;'t'
   725     05E1  346F               	retlw	111	;'o'
   726     05E2  3470               	retlw	112	;'p'
   727     05E3  3400               	retlw	0
   728     05E4                     STR_10:
   729     05E4  3434               	retlw	52	;'4'
   730     05E5  342E               	retlw	46	;'.'
   731     05E6  3453               	retlw	83	;'S'
   732     05E7  3474               	retlw	116	;'t'
   733     05E8  3461               	retlw	97	;'a'
   734     05E9  3472               	retlw	114	;'r'
   735     05EA  3474               	retlw	116	;'t'
   736     05EB  3400               	retlw	0
   737     05EC                     STR_20:
   738     05EC  3454               	retlw	84	;'T'
   739     05ED  3449               	retlw	73	;'I'
   740     05EE  344D               	retlw	77	;'M'
   741     05EF  3445               	retlw	69	;'E'
   742     05F0  342D               	retlw	45	;'-'
   743     05F1  3420               	retlw	32	;' '
   744     05F2  3400               	retlw	0
   745     0514                     
   746                           	psect	cinit
   747     000F                     start_initialization:	
   748                           ; #config settings
   749                           
   750     000F                     __initialization:
   751                           
   752                           ; Initialize objects allocated to BANK0
   753     000F  120A  158A  267D  120A  118A  	fcall	__pidataBANK0	;fetch initializer
   754     0014  00C1               	movwf	__pdataBANK0& (0+127)
   755     0015  120A  158A  267E  120A  118A  	fcall	__pidataBANK0+1	;fetch initializer
   756     001A  00C2               	movwf	(__pdataBANK0+1)& (0+127)
   757                           
   758                           ; Initialize objects allocated to COMMON
   759     001B  120A  118A  27FF  120A  118A  	fcall	__pidataCOMMON	;fetch initializer
   760     0020  00FB               	movwf	__pdataCOMMON& (0+127)
   761                           
   762                           ; Clear objects allocated to BANK0
   763     0021  01B2               	clrf	__pbssBANK0& (0+127)
   764     0022  01B3               	clrf	(__pbssBANK0+1)& (0+127)
   765     0023  01B4               	clrf	(__pbssBANK0+2)& (0+127)
   766     0024  01B5               	clrf	(__pbssBANK0+3)& (0+127)
   767     0025  01B6               	clrf	(__pbssBANK0+4)& (0+127)
   768     0026  01B7               	clrf	(__pbssBANK0+5)& (0+127)
   769     0027  01B8               	clrf	(__pbssBANK0+6)& (0+127)
   770     0028  01B9               	clrf	(__pbssBANK0+7)& (0+127)
   771     0029  01BA               	clrf	(__pbssBANK0+8)& (0+127)
   772     002A  01BB               	clrf	(__pbssBANK0+9)& (0+127)
   773     002B  01BC               	clrf	(__pbssBANK0+10)& (0+127)
   774     002C  01BD               	clrf	(__pbssBANK0+11)& (0+127)
   775     002D  01BE               	clrf	(__pbssBANK0+12)& (0+127)
   776     002E  01BF               	clrf	(__pbssBANK0+13)& (0+127)
   777     002F  01C0               	clrf	(__pbssBANK0+14)& (0+127)
   778     0030                     end_of_initialization:	
   779                           ;End of C runtime variable initialization code
   780                           
   781     0030                     __end_of__initialization:
   782     0030  0183               	clrf	3
   783     0031  120A  118A  2994   	ljmp	_main	;jump to C main() function
   784                           
   785                           	psect	dataCOMMON
   786     007B                     __pdataCOMMON:
   787     007B                     read_matrix_keypad@once:
   788     007B                     	ds	1
   789                           
   790                           	psect	bssBANK0
   791     0032                     __pbssBANK0:
   792     0032                     isr@count:
   793     0032                     	ds	2
   794     0034                     set_time@wait:
   795     0034                     	ds	2
   796     0036                     set_temp@wait:
   797     0036                     	ds	2
   798     0038                     set_time@blink:
   799     0038                     	ds	1
   800     0039                     set_time@blink_pos:
   801     0039                     	ds	1
   802     003A                     set_time@key_count:
   803     003A                     	ds	1
   804     003B                     set_temp@temp:
   805     003B                     	ds	1
   806     003C                     set_temp@blink:
   807     003C                     	ds	1
   808     003D                     set_temp@key_count:
   809     003D                     	ds	1
   810     003E                     _flag:
   811     003E                     	ds	1
   812     003F                     _min:
   813     003F                     	ds	1
   814     0040                     _sec:
   815     0040                     	ds	1
   816                           
   817                           	psect	dataBANK0
   818     0041                     __pdataBANK0:
   819     0041                     _operation_flag:
   820     0041                     	ds	2
   821                           
   822                           	psect	cstackCOMMON
   823     0070                     __pcstackCOMMON:
   824     0070                     ?_init_clcd:
   825     0070                     ?_init_matrix_keypad:	
   826                           ; 1 bytes @ 0x0
   827                           
   828     0070                     ?_init_timer2:	
   829                           ; 1 bytes @ 0x0
   830                           
   831     0070                     ?_read_matrix_keypad:	
   832                           ; 1 bytes @ 0x0
   833                           
   834     0070                     ?_clear_screen:	
   835                           ; 1 bytes @ 0x0
   836                           
   837     0070                     ?_power_on_screen:	
   838                           ; 1 bytes @ 0x0
   839                           
   840     0070                     ?_menu_display_screen:	
   841                           ; 1 bytes @ 0x0
   842                           
   843     0070                     ?_time_display_screen:	
   844                           ; 1 bytes @ 0x0
   845                           
   846     0070                     ?_init_config:	
   847                           ; 1 bytes @ 0x0
   848                           
   849     0070                     ?_main:	
   850                           ; 1 bytes @ 0x0
   851                           
   852     0070                     ?_init_display_controller:	
   853                           ; 1 bytes @ 0x0
   854                           
   855     0070                     ?_scan_keypad:	
   856                           ; 1 bytes @ 0x0
   857                           
   858     0070                     ?_isr:	
   859                           ; 1 bytes @ 0x0
   860                           
   861     0070                     ??_isr:	
   862                           ; 1 bytes @ 0x0
   863                           
   864                           
   865                           ; 1 bytes @ 0x0
   866     0070                     	ds	2
   867     0072                     ??_init_matrix_keypad:
   868     0072                     ??_init_timer2:	
   869                           ; 1 bytes @ 0x2
   870                           
   871     0072                     ?_clcd_write:	
   872                           ; 1 bytes @ 0x2
   873                           
   874     0072                     ??_scan_keypad:	
   875                           ; 1 bytes @ 0x2
   876                           
   877     0072                     ?___bmul:	
   878                           ; 1 bytes @ 0x2
   879                           
   880     0072                     ?___awdiv:	
   881                           ; 1 bytes @ 0x2
   882                           
   883     0072                     clcd_write@mode:	
   884                           ; 2 bytes @ 0x2
   885                           
   886     0072                     ___bmul@multiplicand:	
   887                           ; 1 bytes @ 0x2
   888                           
   889     0072                     scan_keypad@i:	
   890                           ; 1 bytes @ 0x2
   891                           
   892     0072                     ___awdiv@divisor:	
   893                           ; 2 bytes @ 0x2
   894                           
   895                           
   896                           ; 2 bytes @ 0x2
   897     0072                     	ds	1
   898     0073                     ??_clcd_write:
   899     0073                     ??___bmul:	
   900                           ; 1 bytes @ 0x3
   901                           
   902     0073                     ___bmul@product:	
   903                           ; 1 bytes @ 0x3
   904                           
   905                           
   906                           ; 1 bytes @ 0x3
   907     0073                     	ds	1
   908     0074                     ??_read_matrix_keypad:
   909     0074                     read_matrix_keypad@mode:	
   910                           ; 1 bytes @ 0x4
   911                           
   912     0074                     ___bmul@multiplier:	
   913                           ; 1 bytes @ 0x4
   914                           
   915     0074                     ___awdiv@dividend:	
   916                           ; 1 bytes @ 0x4
   917                           
   918                           
   919                           ; 2 bytes @ 0x4
   920     0074                     	ds	1
   921     0075                     clcd_write@byte:
   922     0075                     read_matrix_keypad@key:	
   923                           ; 1 bytes @ 0x5
   924                           
   925                           
   926                           ; 1 bytes @ 0x5
   927     0075                     	ds	1
   928     0076                     ??_clear_screen:
   929     0076                     ?_clcd_print:	
   930                           ; 1 bytes @ 0x6
   931                           
   932     0076                     ??_init_display_controller:	
   933                           ; 1 bytes @ 0x6
   934                           
   935     0076                     ??___awdiv:	
   936                           ; 1 bytes @ 0x6
   937                           
   938     0076                     clcd_print@addr:	
   939                           ; 1 bytes @ 0x6
   940                           
   941     0076                     ___awdiv@counter:	
   942                           ; 1 bytes @ 0x6
   943                           
   944                           
   945                           ; 1 bytes @ 0x6
   946     0076                     	ds	1
   947     0077                     ??_clcd_print:
   948     0077                     clcd_print@str:	
   949                           ; 1 bytes @ 0x7
   950                           
   951     0077                     ___awdiv@sign:	
   952                           ; 1 bytes @ 0x7
   953                           
   954                           
   955                           ; 1 bytes @ 0x7
   956     0077                     	ds	1
   957     0078                     ??_init_clcd:
   958     0078                     ??_menu_display_screen:	
   959                           ; 1 bytes @ 0x8
   960                           
   961     0078                     ??_init_config:	
   962                           ; 1 bytes @ 0x8
   963                           
   964     0078                     ___awdiv@quotient:	
   965                           ; 1 bytes @ 0x8
   966                           
   967                           
   968                           ; 2 bytes @ 0x8
   969     0078                     	ds	2
   970     007A                     ??_clcd_putch:
   971     007A                     ??___awmod:	
   972                           ; 1 bytes @ 0xA
   973                           
   974     007A                     clcd_putch@data:	
   975                           ; 1 bytes @ 0xA
   976                           
   977                           
   978                           ; 1 bytes @ 0xA
   979     007A                     	ds	1
   980                           
   981                           	psect	cstackBANK0
   982     0020                     __pcstackBANK0:
   983     0020                     ?___awmod:
   984     0020                     ___awmod@divisor:	
   985                           ; 2 bytes @ 0x0
   986                           
   987                           
   988                           ; 2 bytes @ 0x0
   989     0020                     	ds	2
   990     0022                     ___awmod@dividend:
   991                           
   992                           ; 2 bytes @ 0x2
   993     0022                     	ds	2
   994     0024                     ___awmod@counter:
   995                           
   996                           ; 1 bytes @ 0x4
   997     0024                     	ds	1
   998     0025                     ___awmod@sign:
   999                           
  1000                           ; 1 bytes @ 0x5
  1001     0025                     	ds	1
  1002     0026                     ?_clcd_putch:
  1003     0026                     clcd_putch@addr:	
  1004                           ; 1 bytes @ 0x6
  1005                           
  1006                           
  1007                           ; 1 bytes @ 0x6
  1008     0026                     	ds	1
  1009     0027                     ??_power_on_screen:
  1010     0027                     ?_set_time:	
  1011                           ; 1 bytes @ 0x7
  1012                           
  1013     0027                     ?_set_temp:	
  1014                           ; 1 bytes @ 0x7
  1015                           
  1016     0027                     ??_time_display_screen:	
  1017                           ; 1 bytes @ 0x7
  1018                           
  1019     0027                     set_temp@reset_flag:	
  1020                           ; 1 bytes @ 0x7
  1021                           
  1022     0027                     set_time@reset_flag:	
  1023                           ; 2 bytes @ 0x7
  1024                           
  1025                           
  1026                           ; 2 bytes @ 0x7
  1027     0027                     	ds	2
  1028     0029                     ??_set_time:
  1029     0029                     ??_set_temp:	
  1030                           ; 1 bytes @ 0x9
  1031                           
  1032                           
  1033                           ; 1 bytes @ 0x9
  1034     0029                     	ds	1
  1035     002A                     power_on_screen@i:
  1036                           
  1037                           ; 1 bytes @ 0xA
  1038     002A                     	ds	1
  1039     002B                     set_temp@key:
  1040     002B                     set_time@key:	
  1041                           ; 1 bytes @ 0xB
  1042                           
  1043                           
  1044                           ; 1 bytes @ 0xB
  1045     002B                     	ds	1
  1046     002C                     ??_main:
  1047                           
  1048                           ; 1 bytes @ 0xC
  1049     002C                     	ds	3
  1050     002F                     main@reset_flag:
  1051                           
  1052                           ; 2 bytes @ 0xF
  1053     002F                     	ds	2
  1054     0031                     main@key:
  1055                           
  1056                           ; 1 bytes @ 0x11
  1057     0031                     	ds	1
  1058                           
  1059                           	psect	maintext
  1060     0194                     __pmaintext:	
  1061 ;;
  1062 ;;Main: autosize = 0, tempsize = 3, incstack = 0, save=0
  1063 ;;
  1064 ;; *************** function _main *****************
  1065 ;; Defined at:
  1066 ;;		line 36 in file "main.c"
  1067 ;; Parameters:    Size  Location     Type
  1068 ;;		None
  1069 ;; Auto vars:     Size  Location     Type
  1070 ;;  reset_flag      2   15[BANK0 ] int 
  1071 ;;  key             1   17[BANK0 ] unsigned char 
  1072 ;; Return value:  Size  Location     Type
  1073 ;;                  1    wreg      void 
  1074 ;; Registers used:
  1075 ;;		wreg, fsr0l, fsr0h, status,2, status,0, btemp+1, pclath, cstack
  1076 ;; Tracked objects:
  1077 ;;		On entry : B00/0
  1078 ;;		On exit  : 0/0
  1079 ;;		Unchanged: 0/0
  1080 ;; Data sizes:     COMMON   BANK0   BANK1   BANK3   BANK2
  1081 ;;      Params:         0       0       0       0       0
  1082 ;;      Locals:         0       3       0       0       0
  1083 ;;      Temps:          0       3       0       0       0
  1084 ;;      Totals:         0       6       0       0       0
  1085 ;;Total ram usage:        6 bytes
  1086 ;; Hardware stack levels required when called: 5
  1087 ;; This function calls:
  1088 ;;		_clcd_print
  1089 ;;		_clear_screen
  1090 ;;		_init_config
  1091 ;;		_menu_display_screen
  1092 ;;		_power_on_screen
  1093 ;;		_read_matrix_keypad
  1094 ;;		_set_temp
  1095 ;;		_set_time
  1096 ;;		_time_display_screen
  1097 ;; This function is called by:
  1098 ;;		Startup code after reset
  1099 ;; This function uses a non-reentrant model
  1100 ;;
  1101                           
  1102     0194                     _main:	
  1103                           ;psect for function _main
  1104                           
  1105     0194                     l2656:	
  1106                           ;incstack = 0
  1107                           ; Regs used in _main: [wreg-fsr0h+status,2+status,0+btemp+1+pclath+cstack]
  1108                           
  1109                           
  1110                           ;main.c: 37:         {
  1111     0194  120A  158A  26BE  120A  118A  	fcall	_init_config
  1112     0199                     l2658:
  1113                           
  1114                           ;main.c: 44:                 _delay((unsigned long)((3000)*(20000000/4000.0)));;main.c: 
      +                          45:                 clear_screen();
  1115     0199  3001               	movlw	1
  1116     019A  120A  158A  26FD  120A  118A  	fcall	_read_matrix_keypad
  1117     019F  1283               	bcf	3,5	;RP0=0, select bank0
  1118     01A0  1303               	bcf	3,6	;RP1=0, select bank0
  1119     01A1  00B1               	movwf	main@key
  1120     01A2                     l2660:
  1121                           
  1122                           ;main.c: 48:             {
  1123     01A2  3002               	movlw	2
  1124     01A3  0641               	xorwf	_operation_flag,w
  1125     01A4  0442               	iorwf	_operation_flag+1,w
  1126     01A5  1D03               	btfss	3,2
  1127     01A6  29A8               	goto	u2251
  1128     01A7  29A9               	goto	u2250
  1129     01A8                     u2251:
  1130     01A8  2A0D               	goto	l2702
  1131     01A9                     u2250:
  1132     01A9                     l2662:
  1133                           
  1134                           ;main.c: 49:                 operation_flag = 0x04;;main.c: 50:                 clear_sc
      +                          reen();
  1135     01A9  0331               	decf	main@key,w
  1136     01AA  1D03               	btfss	3,2
  1137     01AB  29AD               	goto	u2261
  1138     01AC  29AE               	goto	u2260
  1139     01AD                     u2261:
  1140     01AD  29D7               	goto	l2674
  1141     01AE                     u2260:
  1142     01AE                     l2664:
  1143                           
  1144                           ;main.c: 51:                 reset_flag = 0x10;;main.c: 52: 
  1145     01AE  3003               	movlw	3
  1146     01AF  00C1               	movwf	_operation_flag
  1147     01B0  3000               	movlw	0
  1148     01B1  00C2               	movwf	_operation_flag+1
  1149                           
  1150                           ;main.c: 53:             }
  1151     01B2  3010               	movlw	16
  1152     01B3  00AF               	movwf	main@reset_flag
  1153     01B4  3000               	movlw	0
  1154     01B5  00B0               	movwf	main@reset_flag+1
  1155     01B6                     l2666:
  1156                           
  1157                           ;main.c: 54:             else if(key==3)
  1158     01B6  120A  158A  269A  120A  118A  	fcall	_clear_screen
  1159     01BB                     l2668:
  1160                           
  1161                           ;main.c: 55:             {
  1162     01BB  30C0               	movlw	192
  1163     01BC  00F6               	movwf	clcd_print@addr
  1164     01BD  3012               	movlw	(low ((STR_1-__stringbase)| (0+32768)))& (0+255)
  1165     01BE  120A  158A  2720  120A  118A  	fcall	_clcd_print
  1166     01C3                     l2670:
  1167                           
  1168                           ;main.c: 56:                 operation_flag = 0x05;
  1169     01C3  304D               	movlw	77
  1170     01C4  1283               	bcf	3,5	;RP0=0, select bank0
  1171     01C5  1303               	bcf	3,6	;RP1=0, select bank0
  1172     01C6  00AE               	movwf	??_main+2
  1173     01C7  3019               	movlw	25
  1174     01C8  00AD               	movwf	??_main+1
  1175     01C9  304F               	movlw	79
  1176     01CA  00AC               	movwf	??_main
  1177     01CB                     u2407:
  1178     01CB  0BAC               	decfsz	??_main,f
  1179     01CC  29CB               	goto	u2407
  1180     01CD  0BAD               	decfsz	??_main+1,f
  1181     01CE  29CB               	goto	u2407
  1182     01CF  0BAE               	decfsz	??_main+2,f
  1183     01D0  29CB               	goto	u2407
  1184     01D1                     l2672:
  1185                           
  1186                           ;main.c: 57:                 reset_flag = 0x10;
  1187     01D1  120A  158A  269A  120A  118A  	fcall	_clear_screen
  1188                           
  1189                           ;main.c: 58:                 clear_screen();
  1190     01D6  2AA9               	goto	l2756
  1191     01D7                     l2674:
  1192     01D7  3002               	movlw	2
  1193     01D8  0631               	xorwf	main@key,w
  1194     01D9  1D03               	btfss	3,2
  1195     01DA  29DC               	goto	u2271
  1196     01DB  29DD               	goto	u2270
  1197     01DC                     u2271:
  1198     01DC  29ED               	goto	l2682
  1199     01DD                     u2270:
  1200     01DD                     l2676:
  1201                           
  1202                           ;main.c: 60:             else if(key==4);main.c: 61:             {
  1203     01DD  3004               	movlw	4
  1204     01DE  00C1               	movwf	_operation_flag
  1205     01DF  3000               	movlw	0
  1206     01E0  00C2               	movwf	_operation_flag+1
  1207     01E1                     l2678:
  1208                           
  1209                           ;main.c: 62:                 sec=30;
  1210     01E1  120A  158A  269A  120A  118A  	fcall	_clear_screen
  1211     01E6                     l2680:
  1212                           
  1213                           ;main.c: 63:                 min=0;
  1214     01E6  3010               	movlw	16
  1215     01E7  1283               	bcf	3,5	;RP0=0, select bank0
  1216     01E8  1303               	bcf	3,6	;RP1=0, select bank0
  1217     01E9  00AF               	movwf	main@reset_flag
  1218     01EA  3000               	movlw	0
  1219     01EB  00B0               	movwf	main@reset_flag+1
  1220                           
  1221                           ;main.c: 65:                 TMR2ON =1 ;
  1222     01EC  2AA9               	goto	l2756
  1223     01ED                     l2682:
  1224     01ED  3003               	movlw	3
  1225     01EE  0631               	xorwf	main@key,w
  1226     01EF  1D03               	btfss	3,2
  1227     01F0  29F2               	goto	u2281
  1228     01F1  29F3               	goto	u2280
  1229     01F2                     u2281:
  1230     01F2  29FC               	goto	l2688
  1231     01F3                     u2280:
  1232     01F3                     l2684:
  1233                           
  1234                           ;main.c: 67:                 clear_screen();;main.c: 68:             }
  1235     01F3  3005               	movlw	5
  1236     01F4  00C1               	movwf	_operation_flag
  1237     01F5  3000               	movlw	0
  1238     01F6  00C2               	movwf	_operation_flag+1
  1239                           
  1240                           ;main.c: 69:         }
  1241     01F7  3010               	movlw	16
  1242     01F8  00AF               	movwf	main@reset_flag
  1243     01F9  3000               	movlw	0
  1244     01FA  00B0               	movwf	main@reset_flag+1
  1245     01FB  29D1               	goto	l2672
  1246     01FC                     l2688:
  1247     01FC  3004               	movlw	4
  1248     01FD  0631               	xorwf	main@key,w
  1249     01FE  1D03               	btfss	3,2
  1250     01FF  2A01               	goto	u2291
  1251     0200  2A02               	goto	u2290
  1252     0201                     u2291:
  1253     0201  2A0C               	goto	l61
  1254     0202                     u2290:
  1255     0202                     l2690:
  1256                           
  1257                           ;main.c: 73:             {;main.c: 74: 
  1258     0202  301E               	movlw	30
  1259     0203  00C0               	movwf	_sec
  1260     0204                     l2692:
  1261                           
  1262                           ;main.c: 75:               if(sec < 30)
  1263     0204  01BF               	clrf	_min
  1264     0205                     l2694:
  1265                           
  1266                           ;main.c: 76:               {
  1267     0205  1507               	bsf	7,2	;volatile
  1268     0206                     l2696:
  1269                           
  1270                           ;main.c: 77:                 sec = sec + 30;
  1271     0206  1512               	bsf	18,2	;volatile
  1272     0207                     l2698:
  1273                           
  1274                           ;main.c: 78:               }
  1275     0207  3007               	movlw	7
  1276     0208  00C1               	movwf	_operation_flag
  1277     0209  3000               	movlw	0
  1278     020A  00C2               	movwf	_operation_flag+1
  1279     020B  29D1               	goto	l2672
  1280     020C                     l61:
  1281                           
  1282                           ;main.c: 81:                  min++;
  1283     020C  2AA9               	goto	l2756
  1284     020D                     l2702:
  1285     020D  3007               	movlw	7
  1286     020E  0641               	xorwf	_operation_flag,w
  1287     020F  0442               	iorwf	_operation_flag+1,w
  1288     0210  1D03               	btfss	3,2
  1289     0211  2A13               	goto	u2301
  1290     0212  2A14               	goto	u2300
  1291     0213                     u2301:
  1292     0213  2A48               	goto	l2726
  1293     0214                     u2300:
  1294     0214                     l2704:
  1295                           
  1296                           ;main.c: 83: ;main.c: 84:               }
  1297     0214  3004               	movlw	4
  1298     0215  0631               	xorwf	main@key,w
  1299     0216  1D03               	btfss	3,2
  1300     0217  2A19               	goto	u2311
  1301     0218  2A1A               	goto	u2310
  1302     0219                     u2311:
  1303     0219  2A32               	goto	l2716
  1304     021A                     u2310:
  1305     021A                     l2706:
  1306                           
  1307                           ;main.c: 85:             };main.c: 87:             {
  1308     021A  301E               	movlw	30
  1309     021B  0240               	subwf	_sec,w
  1310     021C  1803               	skipnc
  1311     021D  2A1F               	goto	u2321
  1312     021E  2A20               	goto	u2320
  1313     021F                     u2321:
  1314     021F  2A24               	goto	l2710
  1315     0220                     u2320:
  1316     0220                     l2708:
  1317                           
  1318                           ;main.c: 88:                 operation_flag = 0x09;;main.c: 89:             }
  1319     0220  0840               	movf	_sec,w
  1320     0221  3E1E               	addlw	30
  1321     0222  00C0               	movwf	_sec
  1322                           
  1323                           ;main.c: 90:             else if(key==6)
  1324     0223  2AA9               	goto	l2756
  1325     0224                     l2710:
  1326     0224  301E               	movlw	30
  1327     0225  0240               	subwf	_sec,w
  1328     0226  1C03               	skipc
  1329     0227  2A29               	goto	u2331
  1330     0228  2A2A               	goto	u2330
  1331     0229                     u2331:
  1332     0229  2A0C               	goto	l61
  1333     022A                     u2330:
  1334     022A                     l2712:
  1335                           
  1336                           ;main.c: 92:                 operation_flag= 0x0A;;main.c: 93:                 clear_scr
      +                          een();
  1337     022A  3001               	movlw	1
  1338     022B  00FF               	movwf	btemp+1
  1339     022C  087F               	movf	btemp+1,w
  1340     022D  07BF               	addwf	_min,f
  1341     022E                     l2714:
  1342                           
  1343                           ;main.c: 94:             }
  1344     022E  0840               	movf	_sec,w
  1345     022F  3EE2               	addlw	226
  1346     0230  00C0               	movwf	_sec
  1347     0231  2AA9               	goto	l2756
  1348     0232                     l2716:
  1349     0232  3005               	movlw	5
  1350     0233  0631               	xorwf	main@key,w
  1351     0234  1D03               	btfss	3,2
  1352     0235  2A37               	goto	u2341
  1353     0236  2A38               	goto	u2340
  1354     0237                     u2341:
  1355     0237  2A3D               	goto	l2720
  1356     0238                     u2340:
  1357     0238                     l2718:
  1358                           
  1359                           ;main.c: 99:             {;main.c: 100:                 RC2 = 1;
  1360     0238  3009               	movlw	9
  1361     0239  00C1               	movwf	_operation_flag
  1362     023A  3000               	movlw	0
  1363     023B  00C2               	movwf	_operation_flag+1
  1364                           
  1365                           ;main.c: 101:                 TMR2ON =1;
  1366     023C  2AA9               	goto	l2756
  1367     023D                     l2720:
  1368     023D  3006               	movlw	6
  1369     023E  0631               	xorwf	main@key,w
  1370     023F  1D03               	btfss	3,2
  1371     0240  2A42               	goto	u2351
  1372     0241  2A43               	goto	u2350
  1373     0242                     u2351:
  1374     0242  2A0C               	goto	l61
  1375     0243                     u2350:
  1376     0243                     l2722:
  1377                           
  1378                           ;main.c: 103:             };main.c: 104:           }
  1379     0243  300A               	movlw	10
  1380     0244  00C1               	movwf	_operation_flag
  1381     0245  3000               	movlw	0
  1382     0246  00C2               	movwf	_operation_flag+1
  1383     0247  29D1               	goto	l2672
  1384     0248                     l2726:
  1385     0248  3009               	movlw	9
  1386     0249  0641               	xorwf	_operation_flag,w
  1387     024A  0442               	iorwf	_operation_flag+1,w
  1388     024B  1D03               	btfss	3,2
  1389     024C  2A4E               	goto	u2361
  1390     024D  2A4F               	goto	u2360
  1391     024E                     u2361:
  1392     024E  2A0C               	goto	l61
  1393     024F                     u2360:
  1394     024F                     l2728:
  1395                           
  1396                           ;main.c: 109:                 power_on_screen();;main.c: 110:                 operation_
      +                          flag = 0x02;
  1397     024F  3004               	movlw	4
  1398     0250  0631               	xorwf	main@key,w
  1399     0251  1D03               	btfss	3,2
  1400     0252  2A54               	goto	u2371
  1401     0253  2A55               	goto	u2370
  1402     0254                     u2371:
  1403     0254  2AA9               	goto	l2756
  1404     0255                     u2370:
  1405     0255                     l2730:
  1406                           
  1407                           ;main.c: 111:                 clear_screen();;main.c: 112:                 break;
  1408     0255  1507               	bsf	7,2	;volatile
  1409                           
  1410                           ;main.c: 113: 
  1411     0256  1512               	bsf	18,2	;volatile
  1412     0257                     l2732:
  1413                           
  1414                           ;main.c: 114:             case 0x02 :
  1415     0257  3007               	movlw	7
  1416     0258  00C1               	movwf	_operation_flag
  1417     0259  3000               	movlw	0
  1418     025A  00C2               	movwf	_operation_flag+1
  1419     025B  2AA9               	goto	l2756
  1420     025C                     l2734:
  1421                           
  1422                           ;main.c: 121:             case 0x04:
  1423     025C  120A  158A  27B3  120A  118A  	fcall	_power_on_screen
  1424     0261                     l2736:
  1425                           
  1426                           ;main.c: 122:                 set_time(key,reset_flag);
  1427     0261  3002               	movlw	2
  1428     0262  1283               	bcf	3,5	;RP0=0, select bank0
  1429     0263  1303               	bcf	3,6	;RP1=0, select bank0
  1430     0264  00C1               	movwf	_operation_flag
  1431     0265  3000               	movlw	0
  1432     0266  00C2               	movwf	_operation_flag+1
  1433     0267                     l2738:
  1434                           
  1435                           ;main.c: 123:                 break;
  1436     0267  120A  158A  269A  120A  118A  	fcall	_clear_screen
  1437                           
  1438                           ;main.c: 124:             case 0x05:
  1439     026C  2ACD               	goto	l2758
  1440     026D                     l2740:
  1441                           
  1442                           ;main.c: 127:             case 0x07 :
  1443     026D  120A  158A  26DC  120A  118A  	fcall	_menu_display_screen
  1444                           
  1445                           ;main.c: 128:                 time_display_screen();
  1446     0272  2ACD               	goto	l2758
  1447     0273                     l2742:
  1448                           
  1449                           ;main.c: 131:                 RC2 = 0;
  1450     0273  0830               	movf	main@reset_flag+1,w
  1451     0274  00A8               	movwf	set_time@reset_flag+1
  1452     0275  082F               	movf	main@reset_flag,w
  1453     0276  00A7               	movwf	set_time@reset_flag
  1454     0277  0831               	movf	main@key,w
  1455     0278  120A  118A  22E6  120A  118A  	fcall	_set_time
  1456                           
  1457                           ;main.c: 132:                 TMR2ON =0;
  1458     027D  2ACD               	goto	l2758
  1459     027E                     l2744:
  1460                           
  1461                           ;main.c: 134:                 break;
  1462     027E  0830               	movf	main@reset_flag+1,w
  1463     027F  00A8               	movwf	set_time@reset_flag+1
  1464     0280  082F               	movf	main@reset_flag,w
  1465     0281  00A7               	movwf	set_time@reset_flag
  1466     0282  0831               	movf	main@key,w
  1467     0283  120A  118A  22E6  120A  118A  	fcall	_set_time
  1468                           
  1469                           ;main.c: 135:             case 0x09:
  1470     0288  2ACD               	goto	l2758
  1471     0289                     l2746:
  1472                           
  1473                           ;main.c: 137:                 TMR2ON =0;
  1474     0289  0830               	movf	main@reset_flag+1,w
  1475     028A  00A8               	movwf	set_temp@reset_flag+1
  1476     028B  082F               	movf	main@reset_flag,w
  1477     028C  00A7               	movwf	set_temp@reset_flag
  1478     028D  0831               	movf	main@key,w
  1479     028E  120A  118A  2034  120A  118A  	fcall	_set_temp
  1480                           
  1481                           ;main.c: 138:                 break;
  1482     0293  2ACD               	goto	l2758
  1483     0294                     l2748:
  1484                           
  1485                           ;main.c: 140:                 operation_flag = 0x07;
  1486     0294  120A  118A  25F3  120A  118A  	fcall	_time_display_screen
  1487                           
  1488                           ;main.c: 141:                 break;
  1489     0299  2ACD               	goto	l2758
  1490     029A                     l88:	
  1491                           ;main.c: 142:         }
  1492                           
  1493                           
  1494                           ;main.c: 143:         if(flag==0)
  1495     029A  1107               	bcf	7,2	;volatile
  1496                           
  1497                           ;main.c: 144:         reset_flag = 0x0F;
  1498     029B  1112               	bcf	18,2	;volatile
  1499     029C                     l2750:
  1500                           
  1501                           ;main.c: 145:         else if(flag==1)
  1502     029C  3002               	movlw	2
  1503     029D  00C1               	movwf	_operation_flag
  1504     029E  3000               	movlw	0
  1505     029F  00C2               	movwf	_operation_flag+1
  1506                           
  1507                           ;main.c: 146:         reset_flag = 0x10;
  1508     02A0  2ACD               	goto	l2758
  1509     02A1                     l89:	
  1510                           ;main.c: 147:     }
  1511                           
  1512                           
  1513                           ;main.c: 148: }
  1514     02A1  1107               	bcf	7,2	;volatile
  1515                           
  1516                           ;main.c: 149: void time_display_screen(void)
  1517     02A2  1112               	bcf	18,2	;volatile
  1518                           
  1519                           ;main.c: 150: {
  1520     02A3  2ACD               	goto	l2758
  1521     02A4                     l2752:
  1522                           
  1523                           ;main.c: 152:     clcd_print(" TIME =  ",(0x80 + 0));
  1524     02A4  3007               	movlw	7
  1525     02A5  00C1               	movwf	_operation_flag
  1526     02A6  3000               	movlw	0
  1527     02A7  00C2               	movwf	_operation_flag+1
  1528                           
  1529                           ;main.c: 153: 
  1530     02A8  2ACD               	goto	l2758
  1531     02A9                     l2756:
  1532                           
  1533                           ; Switch on 2 bytes has been partitioned into a top level switch of size 1, and 1 sub-sw
      +                          itches
  1534                           ; Switch size 1, requested type "simple"
  1535                           ; Number of cases is 1, Range of values is 0 to 0
  1536                           ; switch strategies available:
  1537                           ; Name         Instructions Cycles
  1538                           ; simple_byte            4     3 (average)
  1539                           ; direct_byte           11     8 (fixed)
  1540                           ; jumptable            260     6 (fixed)
  1541                           ;	Chosen strategy is simple_byte
  1542     02A9  1283               	bcf	3,5	;RP0=0, select bank0
  1543     02AA  1303               	bcf	3,6	;RP1=0, select bank0
  1544     02AB  0842               	movf	_operation_flag+1,w
  1545     02AC  3A00               	xorlw	0	; case 0
  1546     02AD  1903               	skipnz
  1547     02AE  2AB0               	goto	l2822
  1548     02AF  2ACD               	goto	l2758
  1549     02B0                     l2822:
  1550                           
  1551                           ; Switch size 1, requested type "simple"
  1552                           ; Number of cases is 9, Range of values is 1 to 10
  1553                           ; switch strategies available:
  1554                           ; Name         Instructions Cycles
  1555                           ; simple_byte           28    15 (average)
  1556                           ; direct_byte           41    11 (fixed)
  1557                           ; jumptable            263     9 (fixed)
  1558                           ;	Chosen strategy is simple_byte
  1559     02B0  0841               	movf	_operation_flag,w
  1560     02B1  3A01               	xorlw	1	; case 1
  1561     02B2  1903               	skipnz
  1562     02B3  2A5C               	goto	l2734
  1563     02B4  3A03               	xorlw	3	; case 2
  1564     02B5  1903               	skipnz
  1565     02B6  2A6D               	goto	l2740
  1566     02B7  3A01               	xorlw	1	; case 3
  1567     02B8  1903               	skipnz
  1568     02B9  2A73               	goto	l2742
  1569     02BA  3A07               	xorlw	7	; case 4
  1570     02BB  1903               	skipnz
  1571     02BC  2A7E               	goto	l2744
  1572     02BD  3A01               	xorlw	1	; case 5
  1573     02BE  1903               	skipnz
  1574     02BF  2A89               	goto	l2746
  1575     02C0  3A02               	xorlw	2	; case 7
  1576     02C1  1903               	skipnz
  1577     02C2  2A94               	goto	l2748
  1578     02C3  3A0F               	xorlw	15	; case 8
  1579     02C4  1903               	skipnz
  1580     02C5  2AA4               	goto	l2752
  1581     02C6  3A01               	xorlw	1	; case 9
  1582     02C7  1903               	skipnz
  1583     02C8  2AA1               	goto	l89
  1584     02C9  3A03               	xorlw	3	; case 10
  1585     02CA  1903               	skipnz
  1586     02CB  2A9A               	goto	l88
  1587     02CC  2ACD               	goto	l2758
  1588     02CD                     l2758:
  1589                           
  1590                           ;main.c: 155: 
  1591     02CD  1283               	bcf	3,5	;RP0=0, select bank0
  1592     02CE  1303               	bcf	3,6	;RP1=0, select bank0
  1593     02CF  083E               	movf	_flag,w
  1594     02D0  1D03               	btfss	3,2
  1595     02D1  2AD3               	goto	u2381
  1596     02D2  2AD4               	goto	u2380
  1597     02D3                     u2381:
  1598     02D3  2AD9               	goto	l2762
  1599     02D4                     u2380:
  1600     02D4                     l2760:
  1601                           
  1602                           ;main.c: 156:     clcd_putch(min/10 + '0',(0x80 + 9));
  1603     02D4  300F               	movlw	15
  1604     02D5  00AF               	movwf	main@reset_flag
  1605     02D6  3000               	movlw	0
  1606     02D7  00B0               	movwf	main@reset_flag+1
  1607     02D8  2999               	goto	l2658
  1608     02D9                     l2762:
  1609     02D9  033E               	decf	_flag,w
  1610     02DA  1D03               	btfss	3,2
  1611     02DB  2ADD               	goto	u2391
  1612     02DC  2ADE               	goto	u2390
  1613     02DD                     u2391:
  1614     02DD  2999               	goto	l2658
  1615     02DE                     u2390:
  1616     02DE                     l2764:
  1617                           
  1618                           ;main.c: 158:     clcd_putch(':',(0x80 + 11));
  1619     02DE  3010               	movlw	16
  1620     02DF  00AF               	movwf	main@reset_flag
  1621     02E0  3000               	movlw	0
  1622     02E1  00B0               	movwf	main@reset_flag+1
  1623     02E2  2999               	goto	l2658
  1624     02E3  120A  118A  280C   	ljmp	start
  1625     02E6                     __end_of_main:
  1626                           
  1627                           	psect	text1
  1628     05F3                     __ptext1:	
  1629 ;; *************** function _time_display_screen *****************
  1630 ;; Defined at:
  1631 ;;		line 161 in file "main.c"
  1632 ;; Parameters:    Size  Location     Type
  1633 ;;		None
  1634 ;; Auto vars:     Size  Location     Type
  1635 ;;		None
  1636 ;; Return value:  Size  Location     Type
  1637 ;;                  1    wreg      void 
  1638 ;; Registers used:
  1639 ;;		wreg, fsr0l, fsr0h, status,2, status,0, btemp+1, pclath, cstack
  1640 ;; Tracked objects:
  1641 ;;		On entry : 0/0
  1642 ;;		On exit  : 0/0
  1643 ;;		Unchanged: 0/0
  1644 ;; Data sizes:     COMMON   BANK0   BANK1   BANK3   BANK2
  1645 ;;      Params:         0       0       0       0       0
  1646 ;;      Locals:         0       0       0       0       0
  1647 ;;      Temps:          0       3       0       0       0
  1648 ;;      Totals:         0       3       0       0       0
  1649 ;;Total ram usage:        3 bytes
  1650 ;; Hardware stack levels used: 1
  1651 ;; Hardware stack levels required when called: 3
  1652 ;; This function calls:
  1653 ;;		___awdiv
  1654 ;;		___awmod
  1655 ;;		_clcd_print
  1656 ;;		_clcd_putch
  1657 ;;		_clear_screen
  1658 ;; This function is called by:
  1659 ;;		_main
  1660 ;; This function uses a non-reentrant model
  1661 ;;
  1662                           
  1663     05F3                     _time_display_screen:	
  1664                           ;psect for function _time_display_screen
  1665                           
  1666     05F3                     l2616:	
  1667                           ;incstack = 0
  1668                           ; Regs used in _time_display_screen: [wreg-fsr0h+status,2+status,0+btemp+1+pclath+cstack
      +                          ]
  1669                           
  1670                           
  1671                           ;main.c: 164:     clcd_print(" 4.Start/Resume",(0xC0 + 0));
  1672     05F3  3080               	movlw	128
  1673     05F4  00F6               	movwf	clcd_print@addr
  1674     05F5  30AB               	movlw	(low ((STR_2-__stringbase)| (0+32768)))& (0+255)
  1675     05F6  120A  158A  2720  120A  118A  	fcall	_clcd_print
  1676     05FB                     l2618:
  1677                           
  1678                           ;main.c: 168:     if(sec==0 && min ==0)
  1679     05FB  3089               	movlw	137
  1680     05FC  1283               	bcf	3,5	;RP0=0, select bank0
  1681     05FD  1303               	bcf	3,6	;RP1=0, select bank0
  1682     05FE  00A6               	movwf	clcd_putch@addr
  1683     05FF  300A               	movlw	10
  1684     0600  00F2               	movwf	___awdiv@divisor
  1685     0601  3000               	movlw	0
  1686     0602  00F3               	movwf	___awdiv@divisor+1
  1687     0603  083F               	movf	_min,w
  1688     0604  00A7               	movwf	??_time_display_screen
  1689     0605  01A8               	clrf	??_time_display_screen+1
  1690     0606  0827               	movf	??_time_display_screen,w
  1691     0607  00F4               	movwf	___awdiv@dividend
  1692     0608  0828               	movf	??_time_display_screen+1,w
  1693     0609  00F5               	movwf	___awdiv@dividend+1
  1694     060A  120A  118A  2783  120A  118A  	fcall	___awdiv
  1695     060F  0872               	movf	?___awdiv,w
  1696     0610  3E30               	addlw	48
  1697     0611  120A  158A  26AB  120A  118A  	fcall	_clcd_putch
  1698     0616                     l2620:
  1699                           
  1700                           ;main.c: 169:     {
  1701     0616  308A               	movlw	138
  1702     0617  1283               	bcf	3,5	;RP0=0, select bank0
  1703     0618  1303               	bcf	3,6	;RP1=0, select bank0
  1704     0619  00A6               	movwf	clcd_putch@addr
  1705     061A  300A               	movlw	10
  1706     061B  00A0               	movwf	___awmod@divisor
  1707     061C  3000               	movlw	0
  1708     061D  00A1               	movwf	___awmod@divisor+1
  1709     061E  083F               	movf	_min,w
  1710     061F  00A7               	movwf	??_time_display_screen
  1711     0620  01A8               	clrf	??_time_display_screen+1
  1712     0621  0827               	movf	??_time_display_screen,w
  1713     0622  00A2               	movwf	___awmod@dividend
  1714     0623  0828               	movf	??_time_display_screen+1,w
  1715     0624  00A3               	movwf	___awmod@dividend+1
  1716     0625  120A  118A  2498  120A  118A  	fcall	___awmod
  1717     062A  1283               	bcf	3,5	;RP0=0, select bank0
  1718     062B  1303               	bcf	3,6	;RP1=0, select bank0
  1719     062C  0820               	movf	?___awmod,w
  1720     062D  3E30               	addlw	48
  1721     062E  120A  158A  26AB  120A  118A  	fcall	_clcd_putch
  1722     0633                     l2622:
  1723                           
  1724                           ;main.c: 170:         clear_screen();
  1725     0633  308B               	movlw	139
  1726     0634  1283               	bcf	3,5	;RP0=0, select bank0
  1727     0635  1303               	bcf	3,6	;RP1=0, select bank0
  1728     0636  00A6               	movwf	clcd_putch@addr
  1729     0637  303A               	movlw	58
  1730     0638  120A  158A  26AB  120A  118A  	fcall	_clcd_putch
  1731     063D                     l2624:
  1732                           
  1733                           ;main.c: 172:         RC1 = 1 ;
  1734     063D  308C               	movlw	140
  1735     063E  1283               	bcf	3,5	;RP0=0, select bank0
  1736     063F  1303               	bcf	3,6	;RP1=0, select bank0
  1737     0640  00A6               	movwf	clcd_putch@addr
  1738     0641  300A               	movlw	10
  1739     0642  00F2               	movwf	___awdiv@divisor
  1740     0643  3000               	movlw	0
  1741     0644  00F3               	movwf	___awdiv@divisor+1
  1742     0645  0840               	movf	_sec,w
  1743     0646  00A7               	movwf	??_time_display_screen
  1744     0647  01A8               	clrf	??_time_display_screen+1
  1745     0648  0827               	movf	??_time_display_screen,w
  1746     0649  00F4               	movwf	___awdiv@dividend
  1747     064A  0828               	movf	??_time_display_screen+1,w
  1748     064B  00F5               	movwf	___awdiv@dividend+1
  1749     064C  120A  118A  2783  120A  118A  	fcall	___awdiv
  1750     0651  0872               	movf	?___awdiv,w
  1751     0652  3E30               	addlw	48
  1752     0653  120A  158A  26AB  120A  118A  	fcall	_clcd_putch
  1753     0658                     l2626:
  1754                           
  1755                           ;main.c: 173:         _delay((unsigned long)((5000)*(20000000/4000.0)));
  1756     0658  308D               	movlw	141
  1757     0659  1283               	bcf	3,5	;RP0=0, select bank0
  1758     065A  1303               	bcf	3,6	;RP1=0, select bank0
  1759     065B  00A6               	movwf	clcd_putch@addr
  1760     065C  300A               	movlw	10
  1761     065D  00A0               	movwf	___awmod@divisor
  1762     065E  3000               	movlw	0
  1763     065F  00A1               	movwf	___awmod@divisor+1
  1764     0660  0840               	movf	_sec,w
  1765     0661  00A7               	movwf	??_time_display_screen
  1766     0662  01A8               	clrf	??_time_display_screen+1
  1767     0663  0827               	movf	??_time_display_screen,w
  1768     0664  00A2               	movwf	___awmod@dividend
  1769     0665  0828               	movf	??_time_display_screen+1,w
  1770     0666  00A3               	movwf	___awmod@dividend+1
  1771     0667  120A  118A  2498  120A  118A  	fcall	___awmod
  1772     066C  1283               	bcf	3,5	;RP0=0, select bank0
  1773     066D  1303               	bcf	3,6	;RP1=0, select bank0
  1774     066E  0820               	movf	?___awmod,w
  1775     066F  3E30               	addlw	48
  1776     0670  120A  158A  26AB  120A  118A  	fcall	_clcd_putch
  1777     0675                     l2628:
  1778                           
  1779                           ;main.c: 176: 
  1780     0675  30C0               	movlw	192
  1781     0676  00F6               	movwf	clcd_print@addr
  1782     0677  3056               	movlw	(low ((STR_3-__stringbase)| (0+32768)))& (0+255)
  1783     0678  120A  158A  2720  120A  118A  	fcall	_clcd_print
  1784     067D                     l2630:
  1785                           
  1786                           ;main.c: 177:         TMR2ON =0;
  1787     067D  3090               	movlw	144
  1788     067E  00F6               	movwf	clcd_print@addr
  1789     067F  30BE               	movlw	(low ((STR_4-__stringbase)| (0+32768)))& (0+255)
  1790     0680  120A  158A  2720  120A  118A  	fcall	_clcd_print
  1791     0685                     l2632:
  1792                           
  1793                           ;main.c: 178:         clear_screen();
  1794     0685  30D0               	movlw	208
  1795     0686  00F6               	movwf	clcd_print@addr
  1796     0687  30D7               	movlw	(low ((STR_5-__stringbase)| (0+32768)))& (0+255)
  1797     0688  120A  158A  2720  120A  118A  	fcall	_clcd_print
  1798     068D                     l2634:
  1799                           
  1800                           ;main.c: 180:     }
  1801     068D  1283               	bcf	3,5	;RP0=0, select bank0
  1802     068E  1303               	bcf	3,6	;RP1=0, select bank0
  1803     068F  0840               	movf	_sec,w
  1804     0690  1D03               	btfss	3,2
  1805     0691  2E93               	goto	u2231
  1806     0692  2E94               	goto	u2230
  1807     0693                     u2231:
  1808     0693  2EC7               	goto	l100
  1809     0694                     u2230:
  1810     0694                     l2636:
  1811     0694  083F               	movf	_min,w
  1812     0695  1D03               	btfss	3,2
  1813     0696  2E98               	goto	u2241
  1814     0697  2E99               	goto	u2240
  1815     0698                     u2241:
  1816     0698  2EC7               	goto	l100
  1817     0699                     u2240:
  1818     0699                     l2638:
  1819                           
  1820                           ;main.c: 181: ;main.c: 182: }
  1821     0699  120A  158A  269A  120A  118A  	fcall	_clear_screen
  1822     069E                     l2640:
  1823                           
  1824                           ;main.c: 183: 
  1825     069E  30C0               	movlw	192
  1826     069F  00F6               	movwf	clcd_print@addr
  1827     06A0  3084               	movlw	(low ((STR_6-__stringbase)| (0+32768)))& (0+255)
  1828     06A1  120A  158A  2720  120A  118A  	fcall	_clcd_print
  1829     06A6                     l2642:
  1830                           
  1831                           ;main.c: 184: void clear_screen(void)
  1832     06A6  1283               	bcf	3,5	;RP0=0, select bank0
  1833     06A7  1303               	bcf	3,6	;RP1=0, select bank0
  1834     06A8  1487               	bsf	7,1	;volatile
  1835     06A9                     l2644:
  1836                           
  1837                           ;main.c: 185: {
  1838     06A9  307F               	movlw	127
  1839     06AA  1283               	bcf	3,5	;RP0=0, select bank0
  1840     06AB  1303               	bcf	3,6	;RP1=0, select bank0
  1841     06AC  00A9               	movwf	??_time_display_screen+2
  1842     06AD  30D4               	movlw	212
  1843     06AE  00A8               	movwf	??_time_display_screen+1
  1844     06AF  3031               	movlw	49
  1845     06B0  00A7               	movwf	??_time_display_screen
  1846     06B1                     u2417:
  1847     06B1  0BA7               	decfsz	??_time_display_screen,f
  1848     06B2  2EB1               	goto	u2417
  1849     06B3  0BA8               	decfsz	??_time_display_screen+1,f
  1850     06B4  2EB1               	goto	u2417
  1851     06B5  0BA9               	decfsz	??_time_display_screen+2,f
  1852     06B6  2EB1               	goto	u2417
  1853     06B7                     l2646:
  1854                           
  1855                           ;main.c: 186:      clcd_write(0x01, 0);
  1856     06B7  1283               	bcf	3,5	;RP0=0, select bank0
  1857     06B8  1303               	bcf	3,6	;RP1=0, select bank0
  1858     06B9  1087               	bcf	7,1	;volatile
  1859     06BA                     l2648:
  1860                           
  1861                           ;main.c: 187:     _delay((unsigned long)((500)*(20000000/4000000.0)));
  1862     06BA  1107               	bcf	7,2	;volatile
  1863     06BB                     l2650:
  1864                           
  1865                           ;main.c: 189: 
  1866     06BB  1112               	bcf	18,2	;volatile
  1867     06BC                     l2652:
  1868                           
  1869                           ;main.c: 190: void menu_display_screen(void)
  1870     06BC  120A  158A  269A  120A  118A  	fcall	_clear_screen
  1871     06C1                     l2654:
  1872                           
  1873                           ;main.c: 191: {
  1874     06C1  3002               	movlw	2
  1875     06C2  1283               	bcf	3,5	;RP0=0, select bank0
  1876     06C3  1303               	bcf	3,6	;RP1=0, select bank0
  1877     06C4  00C1               	movwf	_operation_flag
  1878     06C5  3000               	movlw	0
  1879     06C6  00C2               	movwf	_operation_flag+1
  1880     06C7                     l100:
  1881     06C7  0008               	return
  1882     06C8                     __end_of_time_display_screen:
  1883                           
  1884                           	psect	text2
  1885     02E6                     __ptext2:	
  1886 ;; *************** function _set_time *****************
  1887 ;; Defined at:
  1888 ;;		line 300 in file "main.c"
  1889 ;; Parameters:    Size  Location     Type
  1890 ;;  key             1    wreg     unsigned char 
  1891 ;;  reset_flag      2    7[BANK0 ] int 
  1892 ;; Auto vars:     Size  Location     Type
  1893 ;;  key             1   11[BANK0 ] unsigned char 
  1894 ;; Return value:  Size  Location     Type
  1895 ;;                  1    wreg      void 
  1896 ;; Registers used:
  1897 ;;		wreg, fsr0l, fsr0h, status,2, status,0, btemp+1, pclath, cstack
  1898 ;; Tracked objects:
  1899 ;;		On entry : 0/0
  1900 ;;		On exit  : 0/0
  1901 ;;		Unchanged: 0/0
  1902 ;; Data sizes:     COMMON   BANK0   BANK1   BANK3   BANK2
  1903 ;;      Params:         0       2       0       0       0
  1904 ;;      Locals:         0       1       0       0       0
  1905 ;;      Temps:          0       2       0       0       0
  1906 ;;      Totals:         0       5       0       0       0
  1907 ;;Total ram usage:        5 bytes
  1908 ;; Hardware stack levels used: 1
  1909 ;; Hardware stack levels required when called: 3
  1910 ;; This function calls:
  1911 ;;		___awdiv
  1912 ;;		___awmod
  1913 ;;		___bmul
  1914 ;;		_clcd_print
  1915 ;;		_clcd_putch
  1916 ;;		_clear_screen
  1917 ;; This function is called by:
  1918 ;;		_main
  1919 ;; This function uses a non-reentrant model
  1920 ;;
  1921                           
  1922     02E6                     _set_time:	
  1923                           ;psect for function _set_time
  1924                           
  1925                           
  1926                           ;incstack = 0
  1927                           ; Regs used in _set_time: [wreg-fsr0h+status,2+status,0+btemp+1+pclath+cstack]
  1928                           ;set_time@key stored from wreg
  1929     02E6  1283               	bcf	3,5	;RP0=0, select bank0
  1930     02E7  1303               	bcf	3,6	;RP1=0, select bank0
  1931     02E8  00AB               	movwf	set_time@key
  1932     02E9                     l2458:
  1933                           
  1934                           ;main.c: 300:         blink_pos=0;;main.c: 301:         key = 0xFF;;main.c: 302:        
      +                           clcd_print("SET TIME (MM:SS)",(0x80 + 0));
  1935     02E9  01BE               	clrf	_flag
  1936     02EA                     l2460:
  1937                           
  1938                           ;main.c: 303:         clcd_print("TIME- ",(0xC0 + 0));;main.c: 304:         clcd_print("
      +                          *:CLEAR  #:ENTER",(0xD0 + 0));;main.c: 305: 
  1939     02EA  3010               	movlw	16
  1940     02EB  0627               	xorwf	set_time@reset_flag,w
  1941     02EC  0428               	iorwf	set_time@reset_flag+1,w
  1942     02ED  1D03               	btfss	3,2
  1943     02EE  2AF0               	goto	u1991
  1944     02EF  2AF1               	goto	u1990
  1945     02F0                     u1991:
  1946     02F0  2B12               	goto	l2472
  1947     02F1                     u1990:
  1948     02F1                     l2462:
  1949                           
  1950                           ;main.c: 306:     };main.c: 307: 
  1951     02F1  01BA               	clrf	set_time@key_count
  1952                           
  1953                           ;main.c: 308:     if((key!= '*')&& (key!='#')&& (key!=0xFF))
  1954     02F2  01C0               	clrf	_sec
  1955                           
  1956                           ;main.c: 309:     {
  1957     02F3  01BF               	clrf	_min
  1958                           
  1959                           ;main.c: 310:         key_count++;
  1960     02F4  01B4               	clrf	set_time@wait
  1961     02F5  01B5               	clrf	set_time@wait+1
  1962                           
  1963                           ;main.c: 311:         if(key_count <=2)
  1964     02F6  01B8               	clrf	set_time@blink
  1965                           
  1966                           ;main.c: 312:         {
  1967     02F7  01B9               	clrf	set_time@blink_pos
  1968     02F8                     l2464:
  1969                           
  1970                           ;main.c: 313:             sec = sec*10 + key;
  1971     02F8  30FF               	movlw	255
  1972     02F9  00AB               	movwf	set_time@key
  1973     02FA                     l2466:
  1974                           
  1975                           ;main.c: 314:             blink_pos =0;
  1976     02FA  3080               	movlw	128
  1977     02FB  00F6               	movwf	clcd_print@addr
  1978     02FC  3034               	movlw	(low ((STR_19-__stringbase)| (0+32768)))& (0+255)
  1979     02FD  120A  158A  2720  120A  118A  	fcall	_clcd_print
  1980     0302                     l2468:
  1981                           
  1982                           ;main.c: 315:         }
  1983     0302  30C0               	movlw	192
  1984     0303  00F6               	movwf	clcd_print@addr
  1985     0304  30E7               	movlw	(low ((STR_20-__stringbase)| (0+32768)))& (0+255)
  1986     0305  120A  158A  2720  120A  118A  	fcall	_clcd_print
  1987     030A                     l2470:
  1988                           
  1989                           ;main.c: 316:         else if((key_count >2)&&(key_count <=4))
  1990     030A  30D0               	movlw	208
  1991     030B  00F6               	movwf	clcd_print@addr
  1992     030C  3045               	movlw	(low ((STR_15-__stringbase)| (0+32768)))& (0+255)
  1993     030D  120A  158A  2720  120A  118A  	fcall	_clcd_print
  1994     0312                     l2472:
  1995                           
  1996                           ;main.c: 320:         }
  1997     0312  302A               	movlw	42
  1998     0313  1283               	bcf	3,5	;RP0=0, select bank0
  1999     0314  1303               	bcf	3,6	;RP1=0, select bank0
  2000     0315  062B               	xorwf	set_time@key,w
  2001     0316  1903               	btfsc	3,2
  2002     0317  2B19               	goto	u2001
  2003     0318  2B1A               	goto	u2000
  2004     0319                     u2001:
  2005     0319  2B58               	goto	l2494
  2006     031A                     u2000:
  2007     031A                     l2474:
  2008     031A  3023               	movlw	35
  2009     031B  062B               	xorwf	set_time@key,w
  2010     031C  1903               	btfsc	3,2
  2011     031D  2B1F               	goto	u2011
  2012     031E  2B20               	goto	u2010
  2013     031F                     u2011:
  2014     031F  2B58               	goto	l2494
  2015     0320                     u2010:
  2016     0320                     l2476:
  2017     0320  0A2B               	incf	set_time@key,w
  2018     0321  1903               	btfsc	3,2
  2019     0322  2B24               	goto	u2021
  2020     0323  2B25               	goto	u2020
  2021     0324                     u2021:
  2022     0324  2B58               	goto	l2494
  2023     0325                     u2020:
  2024     0325                     l2478:
  2025                           
  2026                           ;main.c: 321:     };main.c: 322:     else if(key == '*')
  2027     0325  3001               	movlw	1
  2028     0326  00FF               	movwf	btemp+1
  2029     0327  087F               	movf	btemp+1,w
  2030     0328  07BA               	addwf	set_time@key_count,f
  2031     0329                     l2480:
  2032                           
  2033                           ;main.c: 323:     {
  2034     0329  3003               	movlw	3
  2035     032A  023A               	subwf	set_time@key_count,w
  2036     032B  1803               	skipnc
  2037     032C  2B2E               	goto	u2031
  2038     032D  2B2F               	goto	u2030
  2039     032E                     u2031:
  2040     032E  2B3D               	goto	l2486
  2041     032F                     u2030:
  2042     032F                     l2482:
  2043                           
  2044                           ;main.c: 324:         if(blink_pos == 0);main.c: 325:         {
  2045     032F  300A               	movlw	10
  2046     0330  00F2               	movwf	___bmul@multiplicand
  2047     0331  0840               	movf	_sec,w
  2048     0332  120A  118A  27EA  120A  118A  	fcall	___bmul
  2049     0337  1283               	bcf	3,5	;RP0=0, select bank0
  2050     0338  1303               	bcf	3,6	;RP1=0, select bank0
  2051     0339  072B               	addwf	set_time@key,w
  2052     033A  00C0               	movwf	_sec
  2053     033B                     l2484:
  2054                           
  2055                           ;main.c: 326:             sec =0;
  2056     033B  01B9               	clrf	set_time@blink_pos
  2057                           
  2058                           ;main.c: 327:             key_count =0;
  2059     033C  2B82               	goto	l2516
  2060     033D                     l2486:
  2061     033D  3003               	movlw	3
  2062     033E  023A               	subwf	set_time@key_count,w
  2063     033F  1C03               	skipc
  2064     0340  2B42               	goto	u2041
  2065     0341  2B43               	goto	u2040
  2066     0342                     u2041:
  2067     0342  2B82               	goto	l2516
  2068     0343                     u2040:
  2069     0343                     l2488:
  2070     0343  3005               	movlw	5
  2071     0344  023A               	subwf	set_time@key_count,w
  2072     0345  1803               	skipnc
  2073     0346  2B48               	goto	u2051
  2074     0347  2B49               	goto	u2050
  2075     0348                     u2051:
  2076     0348  2B82               	goto	l2516
  2077     0349                     u2050:
  2078     0349                     l2490:
  2079                           
  2080                           ;main.c: 329:         else if(blink_pos ==1);main.c: 330:         {
  2081     0349  300A               	movlw	10
  2082     034A  00F2               	movwf	___bmul@multiplicand
  2083     034B  083F               	movf	_min,w
  2084     034C  120A  118A  27EA  120A  118A  	fcall	___bmul
  2085     0351  1283               	bcf	3,5	;RP0=0, select bank0
  2086     0352  1303               	bcf	3,6	;RP1=0, select bank0
  2087     0353  072B               	addwf	set_time@key,w
  2088     0354  00BF               	movwf	_min
  2089     0355                     l2492:
  2090                           
  2091                           ;main.c: 331:             min =0;
  2092     0355  01B9               	clrf	set_time@blink_pos
  2093     0356  0AB9               	incf	set_time@blink_pos,f
  2094     0357  2B82               	goto	l2516
  2095     0358                     l2494:
  2096     0358  302A               	movlw	42
  2097     0359  062B               	xorwf	set_time@key,w
  2098     035A  1D03               	btfss	3,2
  2099     035B  2B5D               	goto	u2061
  2100     035C  2B5E               	goto	u2060
  2101     035D                     u2061:
  2102     035D  2B6F               	goto	l2506
  2103     035E                     u2060:
  2104     035E                     l2496:
  2105                           
  2106                           ;main.c: 335:     else if(key == '#');main.c: 336:     {
  2107     035E  0839               	movf	set_time@blink_pos,w
  2108     035F  1D03               	btfss	3,2
  2109     0360  2B62               	goto	u2071
  2110     0361  2B63               	goto	u2070
  2111     0362                     u2071:
  2112     0362  2B66               	goto	l2500
  2113     0363                     u2070:
  2114     0363                     l2498:
  2115                           
  2116                           ;main.c: 337:         clear_screen();;main.c: 338:         operation_flag = 0x07;
  2117     0363  01C0               	clrf	_sec
  2118                           
  2119                           ;main.c: 339:         RC2 = 1;
  2120     0364  01BA               	clrf	set_time@key_count
  2121                           
  2122                           ;main.c: 340: 
  2123     0365  2B82               	goto	l2516
  2124     0366                     l2500:
  2125     0366  0339               	decf	set_time@blink_pos,w
  2126     0367  1D03               	btfss	3,2
  2127     0368  2B6A               	goto	u2081
  2128     0369  2B6B               	goto	u2080
  2129     036A                     u2081:
  2130     036A  2B82               	goto	l2516
  2131     036B                     u2080:
  2132     036B                     l2502:
  2133                           
  2134                           ;main.c: 342:         TMR2ON =1;;main.c: 343:     }
  2135     036B  01BF               	clrf	_min
  2136     036C                     l2504:
  2137                           
  2138                           ;main.c: 344: 
  2139     036C  3002               	movlw	2
  2140     036D  00BA               	movwf	set_time@key_count
  2141     036E  2B82               	goto	l2516
  2142     036F                     l2506:
  2143     036F  3023               	movlw	35
  2144     0370  062B               	xorwf	set_time@key,w
  2145     0371  1D03               	btfss	3,2
  2146     0372  2B74               	goto	u2091
  2147     0373  2B75               	goto	u2090
  2148     0374                     u2091:
  2149     0374  2B82               	goto	l2516
  2150     0375                     u2090:
  2151     0375                     l2508:
  2152                           
  2153                           ;main.c: 348:         blink=~blink;;main.c: 349: 
  2154     0375  120A  158A  269A  120A  118A  	fcall	_clear_screen
  2155     037A                     l2510:
  2156                           
  2157                           ;main.c: 350: 
  2158     037A  3007               	movlw	7
  2159     037B  1283               	bcf	3,5	;RP0=0, select bank0
  2160     037C  1303               	bcf	3,6	;RP1=0, select bank0
  2161     037D  00C1               	movwf	_operation_flag
  2162     037E  3000               	movlw	0
  2163     037F  00C2               	movwf	_operation_flag+1
  2164     0380                     l2512:
  2165                           
  2166                           ;main.c: 351:         clcd_putch(min/10 + '0',(0xC0 + 6));
  2167     0380  1507               	bsf	7,2	;volatile
  2168     0381                     l2514:
  2169                           
  2170                           ;main.c: 354: 
  2171     0381  1512               	bsf	18,2	;volatile
  2172     0382                     l2516:
  2173                           
  2174                           ;main.c: 357: 
  2175     0382  3001               	movlw	1
  2176     0383  07B4               	addwf	set_time@wait,f
  2177     0384  1803               	skipnc
  2178     0385  0AB5               	incf	set_time@wait+1,f
  2179     0386  3000               	movlw	0
  2180     0387  07B5               	addwf	set_time@wait+1,f
  2181     0388  301F               	movlw	31
  2182     0389  0634               	xorwf	set_time@wait,w
  2183     038A  0435               	iorwf	set_time@wait+1,w
  2184     038B  1D03               	btfss	3,2
  2185     038C  2B8E               	goto	u2101
  2186     038D  2B8F               	goto	u2100
  2187     038E                     u2101:
  2188     038E  2C0A               	goto	l2532
  2189     038F                     u2100:
  2190     038F                     l2518:
  2191                           
  2192                           ;main.c: 358:     };main.c: 359:     if(blink)
  2193     038F  01B4               	clrf	set_time@wait
  2194     0390  01B5               	clrf	set_time@wait+1
  2195     0391                     l2520:
  2196                           
  2197                           ;main.c: 360:     {
  2198     0391  09B8               	comf	set_time@blink,f
  2199     0392                     l2522:
  2200                           
  2201                           ;main.c: 363:             case 0:
  2202     0392  30C6               	movlw	198
  2203     0393  00A6               	movwf	clcd_putch@addr
  2204     0394  300A               	movlw	10
  2205     0395  00F2               	movwf	___awdiv@divisor
  2206     0396  3000               	movlw	0
  2207     0397  00F3               	movwf	___awdiv@divisor+1
  2208     0398  083F               	movf	_min,w
  2209     0399  00A9               	movwf	??_set_time
  2210     039A  01AA               	clrf	??_set_time+1
  2211     039B  0829               	movf	??_set_time,w
  2212     039C  00F4               	movwf	___awdiv@dividend
  2213     039D  082A               	movf	??_set_time+1,w
  2214     039E  00F5               	movwf	___awdiv@dividend+1
  2215     039F  120A  118A  2783  120A  118A  	fcall	___awdiv
  2216     03A4  0872               	movf	?___awdiv,w
  2217     03A5  3E30               	addlw	48
  2218     03A6  120A  158A  26AB  120A  118A  	fcall	_clcd_putch
  2219     03AB                     l2524:
  2220                           
  2221                           ;main.c: 364:                 clcd_print("  ",(0xC0 + 9));
  2222     03AB  30C7               	movlw	199
  2223     03AC  1283               	bcf	3,5	;RP0=0, select bank0
  2224     03AD  1303               	bcf	3,6	;RP1=0, select bank0
  2225     03AE  00A6               	movwf	clcd_putch@addr
  2226     03AF  300A               	movlw	10
  2227     03B0  00A0               	movwf	___awmod@divisor
  2228     03B1  3000               	movlw	0
  2229     03B2  00A1               	movwf	___awmod@divisor+1
  2230     03B3  083F               	movf	_min,w
  2231     03B4  00A9               	movwf	??_set_time
  2232     03B5  01AA               	clrf	??_set_time+1
  2233     03B6  0829               	movf	??_set_time,w
  2234     03B7  00A2               	movwf	___awmod@dividend
  2235     03B8  082A               	movf	??_set_time+1,w
  2236     03B9  00A3               	movwf	___awmod@dividend+1
  2237     03BA  120A  118A  2498  120A  118A  	fcall	___awmod
  2238     03BF  1283               	bcf	3,5	;RP0=0, select bank0
  2239     03C0  1303               	bcf	3,6	;RP1=0, select bank0
  2240     03C1  0820               	movf	?___awmod,w
  2241     03C2  3E30               	addlw	48
  2242     03C3  120A  158A  26AB  120A  118A  	fcall	_clcd_putch
  2243     03C8                     l2526:
  2244                           
  2245                           ;main.c: 365:                 break;
  2246     03C8  30C8               	movlw	200
  2247     03C9  1283               	bcf	3,5	;RP0=0, select bank0
  2248     03CA  1303               	bcf	3,6	;RP1=0, select bank0
  2249     03CB  00A6               	movwf	clcd_putch@addr
  2250     03CC  303A               	movlw	58
  2251     03CD  120A  158A  26AB  120A  118A  	fcall	_clcd_putch
  2252     03D2                     l2528:
  2253                           
  2254                           ;main.c: 367:                 clcd_print("  ",(0xC0 + 6));
  2255     03D2  30C9               	movlw	201
  2256     03D3  1283               	bcf	3,5	;RP0=0, select bank0
  2257     03D4  1303               	bcf	3,6	;RP1=0, select bank0
  2258     03D5  00A6               	movwf	clcd_putch@addr
  2259     03D6  300A               	movlw	10
  2260     03D7  00F2               	movwf	___awdiv@divisor
  2261     03D8  3000               	movlw	0
  2262     03D9  00F3               	movwf	___awdiv@divisor+1
  2263     03DA  0840               	movf	_sec,w
  2264     03DB  00A9               	movwf	??_set_time
  2265     03DC  01AA               	clrf	??_set_time+1
  2266     03DD  0829               	movf	??_set_time,w
  2267     03DE  00F4               	movwf	___awdiv@dividend
  2268     03DF  082A               	movf	??_set_time+1,w
  2269     03E0  00F5               	movwf	___awdiv@dividend+1
  2270     03E1  120A  118A  2783  120A  118A  	fcall	___awdiv
  2271     03E6  0872               	movf	?___awdiv,w
  2272     03E7  3E30               	addlw	48
  2273     03E8  120A  158A  26AB  120A  118A  	fcall	_clcd_putch
  2274     03ED                     l2530:
  2275                           
  2276                           ;main.c: 368:                 break;
  2277     03ED  30CA               	movlw	202
  2278     03EE  1283               	bcf	3,5	;RP0=0, select bank0
  2279     03EF  1303               	bcf	3,6	;RP1=0, select bank0
  2280     03F0  00A6               	movwf	clcd_putch@addr
  2281     03F1  300A               	movlw	10
  2282     03F2  00A0               	movwf	___awmod@divisor
  2283     03F3  3000               	movlw	0
  2284     03F4  00A1               	movwf	___awmod@divisor+1
  2285     03F5  0840               	movf	_sec,w
  2286     03F6  00A9               	movwf	??_set_time
  2287     03F7  01AA               	clrf	??_set_time+1
  2288     03F8  0829               	movf	??_set_time,w
  2289     03F9  00A2               	movwf	___awmod@dividend
  2290     03FA  082A               	movf	??_set_time+1,w
  2291     03FB  00A3               	movwf	___awmod@dividend+1
  2292     03FC  120A  118A  2498  120A  118A  	fcall	___awmod
  2293     0401  1283               	bcf	3,5	;RP0=0, select bank0
  2294     0402  1303               	bcf	3,6	;RP1=0, select bank0
  2295     0403  0820               	movf	?___awmod,w
  2296     0404  3E30               	addlw	48
  2297     0405  120A  158A  26AB  120A  118A  	fcall	_clcd_putch
  2298     040A                     l2532:
  2299                           
  2300                           ;main.c: 371: }
  2301     040A  1283               	bcf	3,5	;RP0=0, select bank0
  2302     040B  1303               	bcf	3,6	;RP1=0, select bank0
  2303     040C  0838               	movf	set_time@blink,w
  2304     040D  1903               	btfsc	3,2
  2305     040E  2C10               	goto	u2111
  2306     040F  2C11               	goto	u2110
  2307     0410                     u2111:
  2308     0410  2C34               	goto	l164
  2309     0411                     u2110:
  2310     0411  2C24               	goto	l2542
  2311     0412                     l2536:
  2312     0412  30C9               	movlw	201
  2313     0413  00F6               	movwf	clcd_print@addr
  2314     0414  300F               	movlw	(low (((STR_11+14)-__stringbase)| (0+32768)))& (0+255)
  2315     0415  120A  158A  2720  120A  118A  	fcall	_clcd_print
  2316     041A  2C34               	goto	l164
  2317     041B                     l2538:
  2318     041B  30C6               	movlw	198
  2319     041C  00F6               	movwf	clcd_print@addr
  2320     041D  300F               	movlw	(low (((STR_11+14)-__stringbase)| (0+32768)))& (0+255)
  2321     041E  120A  158A  2720  120A  118A  	fcall	_clcd_print
  2322     0423  2C34               	goto	l164
  2323     0424                     l2542:
  2324     0424  0839               	movf	set_time@blink_pos,w
  2325     0425  00A9               	movwf	??_set_time
  2326     0426  01AA               	clrf	??_set_time+1
  2327                           
  2328                           ; Switch on 2 bytes has been partitioned into a top level switch of size 1, and 1 sub-sw
      +                          itches
  2329                           ; Switch size 1, requested type "simple"
  2330                           ; Number of cases is 1, Range of values is 0 to 0
  2331                           ; switch strategies available:
  2332                           ; Name         Instructions Cycles
  2333                           ; simple_byte            4     3 (average)
  2334                           ; direct_byte           11     8 (fixed)
  2335                           ; jumptable            260     6 (fixed)
  2336                           ;	Chosen strategy is simple_byte
  2337     0427  082A               	movf	??_set_time+1,w
  2338     0428  3A00               	xorlw	0	; case 0
  2339     0429  1903               	skipnz
  2340     042A  2C2C               	goto	l2824
  2341     042B  2C34               	goto	l164
  2342     042C                     l2824:
  2343                           
  2344                           ; Switch size 1, requested type "simple"
  2345                           ; Number of cases is 2, Range of values is 0 to 1
  2346                           ; switch strategies available:
  2347                           ; Name         Instructions Cycles
  2348                           ; simple_byte            7     4 (average)
  2349                           ; direct_byte           14     8 (fixed)
  2350                           ; jumptable            260     6 (fixed)
  2351                           ;	Chosen strategy is simple_byte
  2352     042C  0829               	movf	??_set_time,w
  2353     042D  3A00               	xorlw	0	; case 0
  2354     042E  1903               	skipnz
  2355     042F  2C12               	goto	l2536
  2356     0430  3A01               	xorlw	1	; case 1
  2357     0431  1903               	skipnz
  2358     0432  2C1B               	goto	l2538
  2359     0433  2C34               	goto	l164
  2360     0434                     l164:
  2361     0434  0008               	return
  2362     0435                     __end_of_set_time:
  2363                           
  2364                           	psect	text3
  2365     0034                     __ptext3:	
  2366 ;; *************** function _set_temp *****************
  2367 ;; Defined at:
  2368 ;;		line 228 in file "main.c"
  2369 ;; Parameters:    Size  Location     Type
  2370 ;;  key             1    wreg     unsigned char 
  2371 ;;  reset_flag      2    7[BANK0 ] int 
  2372 ;; Auto vars:     Size  Location     Type
  2373 ;;  key             1   11[BANK0 ] unsigned char 
  2374 ;; Return value:  Size  Location     Type
  2375 ;;                  1    wreg      void 
  2376 ;; Registers used:
  2377 ;;		wreg, fsr0l, fsr0h, status,2, status,0, btemp+1, pclath, cstack
  2378 ;; Tracked objects:
  2379 ;;		On entry : 0/0
  2380 ;;		On exit  : 0/0
  2381 ;;		Unchanged: 0/0
  2382 ;; Data sizes:     COMMON   BANK0   BANK1   BANK3   BANK2
  2383 ;;      Params:         0       2       0       0       0
  2384 ;;      Locals:         0       1       0       0       0
  2385 ;;      Temps:          0       2       0       0       0
  2386 ;;      Totals:         0       5       0       0       0
  2387 ;;Total ram usage:        5 bytes
  2388 ;; Hardware stack levels used: 1
  2389 ;; Hardware stack levels required when called: 3
  2390 ;; This function calls:
  2391 ;;		___awdiv
  2392 ;;		___awmod
  2393 ;;		___bmul
  2394 ;;		_clcd_print
  2395 ;;		_clcd_putch
  2396 ;;		_clear_screen
  2397 ;; This function is called by:
  2398 ;;		_main
  2399 ;; This function uses a non-reentrant model
  2400 ;;
  2401                           
  2402     0034                     _set_temp:	
  2403                           ;psect for function _set_temp
  2404                           
  2405                           
  2406                           ;incstack = 0
  2407                           ; Regs used in _set_temp: [wreg-fsr0h+status,2+status,0+btemp+1+pclath+cstack]
  2408                           ;set_temp@key stored from wreg
  2409     0034  1283               	bcf	3,5	;RP0=0, select bank0
  2410     0035  1303               	bcf	3,6	;RP1=0, select bank0
  2411     0036  00AB               	movwf	set_temp@key
  2412     0037                     l2548:
  2413                           
  2414                           ;main.c: 228:         clcd_print(" SET TEMP(oC) ",(0x80 + 0));;main.c: 229:         clcd
      +                          _print(" TEMP = ",(0xC0 + 0));;main.c: 230:         clcd_print("*:CLEAR  #:ENTER",(0xD0 
      +                          + 0));;main.c: 231:     };main.c: 232: 
  2415     0037  3010               	movlw	16
  2416     0038  0627               	xorwf	set_temp@reset_flag,w
  2417     0039  0428               	iorwf	set_temp@reset_flag+1,w
  2418     003A  1D03               	btfss	3,2
  2419     003B  283D               	goto	u2121
  2420     003C  283E               	goto	u2120
  2421     003D                     u2121:
  2422     003D  285E               	goto	l2560
  2423     003E                     u2120:
  2424     003E                     l2550:
  2425                           
  2426                           ;main.c: 233: ;main.c: 234:     if((key!= '*')&& (key!='#')&& (key!=0xFF))
  2427     003E  01BD               	clrf	set_temp@key_count
  2428                           
  2429                           ;main.c: 235:     {
  2430     003F  01B6               	clrf	set_temp@wait
  2431     0040  01B7               	clrf	set_temp@wait+1
  2432                           
  2433                           ;main.c: 236:         key_count++;
  2434     0041  01BC               	clrf	set_temp@blink
  2435                           
  2436                           ;main.c: 237:         if(key_count <=3)
  2437     0042  01BB               	clrf	set_temp@temp
  2438                           
  2439                           ;main.c: 238:         {
  2440     0043  01BE               	clrf	_flag
  2441     0044                     l2552:
  2442                           
  2443                           ;main.c: 239:             temp = temp*10 + key;
  2444     0044  30FF               	movlw	255
  2445     0045  00AB               	movwf	set_temp@key
  2446     0046                     l2554:
  2447                           
  2448                           ;main.c: 240:         }
  2449     0046  3080               	movlw	128
  2450     0047  00F6               	movwf	clcd_print@addr
  2451     0048  3066               	movlw	(low ((STR_13-__stringbase)| (0+32768)))& (0+255)
  2452     0049  120A  158A  2720  120A  118A  	fcall	_clcd_print
  2453     004E                     l2556:
  2454                           
  2455                           ;main.c: 241: 
  2456     004E  30C0               	movlw	192
  2457     004F  00F6               	movwf	clcd_print@addr
  2458     0050  30B5               	movlw	(low ((STR_14-__stringbase)| (0+32768)))& (0+255)
  2459     0051  120A  158A  2720  120A  118A  	fcall	_clcd_print
  2460     0056                     l2558:
  2461                           
  2462                           ;main.c: 242:     }
  2463     0056  30D0               	movlw	208
  2464     0057  00F6               	movwf	clcd_print@addr
  2465     0058  3045               	movlw	(low ((STR_15-__stringbase)| (0+32768)))& (0+255)
  2466     0059  120A  158A  2720  120A  118A  	fcall	_clcd_print
  2467     005E                     l2560:
  2468                           
  2469                           ;main.c: 246:         key_count =0;
  2470     005E  302A               	movlw	42
  2471     005F  1283               	bcf	3,5	;RP0=0, select bank0
  2472     0060  1303               	bcf	3,6	;RP1=0, select bank0
  2473     0061  062B               	xorwf	set_temp@key,w
  2474     0062  1903               	btfsc	3,2
  2475     0063  2865               	goto	u2131
  2476     0064  2866               	goto	u2130
  2477     0065                     u2131:
  2478     0065  2888               	goto	l2572
  2479     0066                     u2130:
  2480     0066                     l2562:
  2481     0066  3023               	movlw	35
  2482     0067  062B               	xorwf	set_temp@key,w
  2483     0068  1903               	btfsc	3,2
  2484     0069  286B               	goto	u2141
  2485     006A  286C               	goto	u2140
  2486     006B                     u2141:
  2487     006B  2888               	goto	l2572
  2488     006C                     u2140:
  2489     006C                     l2564:
  2490     006C  0A2B               	incf	set_temp@key,w
  2491     006D  1903               	btfsc	3,2
  2492     006E  2870               	goto	u2151
  2493     006F  2871               	goto	u2150
  2494     0070                     u2151:
  2495     0070  2888               	goto	l2572
  2496     0071                     u2150:
  2497     0071                     l2566:
  2498                           
  2499                           ;main.c: 247:     };main.c: 248:     else if(key == '#')
  2500     0071  3001               	movlw	1
  2501     0072  00FF               	movwf	btemp+1
  2502     0073  087F               	movf	btemp+1,w
  2503     0074  07BD               	addwf	set_temp@key_count,f
  2504     0075                     l2568:
  2505                           
  2506                           ;main.c: 249:     {
  2507     0075  3004               	movlw	4
  2508     0076  023D               	subwf	set_temp@key_count,w
  2509     0077  1803               	skipnc
  2510     0078  287A               	goto	u2161
  2511     0079  287B               	goto	u2160
  2512     007A                     u2161:
  2513     007A  2912               	goto	l2600
  2514     007B                     u2160:
  2515     007B                     l2570:
  2516                           
  2517                           ;main.c: 250:         clear_screen();;main.c: 251: 
  2518     007B  300A               	movlw	10
  2519     007C  00F2               	movwf	___bmul@multiplicand
  2520     007D  083B               	movf	set_temp@temp,w
  2521     007E  120A  118A  27EA  120A  118A  	fcall	___bmul
  2522     0083  1283               	bcf	3,5	;RP0=0, select bank0
  2523     0084  1303               	bcf	3,6	;RP1=0, select bank0
  2524     0085  072B               	addwf	set_temp@key,w
  2525     0086  00BB               	movwf	set_temp@temp
  2526     0087  2912               	goto	l2600
  2527     0088                     l2572:
  2528     0088  302A               	movlw	42
  2529     0089  062B               	xorwf	set_temp@key,w
  2530     008A  1D03               	btfss	3,2
  2531     008B  288D               	goto	u2171
  2532     008C  288E               	goto	u2170
  2533     008D                     u2171:
  2534     008D  2891               	goto	l2576
  2535     008E                     u2170:
  2536     008E                     l2574:
  2537                           
  2538                           ;main.c: 256:         while(sec!=0);main.c: 257:         {
  2539     008E  01BB               	clrf	set_temp@temp
  2540                           
  2541                           ;main.c: 258: 
  2542     008F  01BD               	clrf	set_temp@key_count
  2543                           
  2544                           ;main.c: 259:             clcd_putch((sec/10)%10 + '0',(0x90 + 12));
  2545     0090  2912               	goto	l2600
  2546     0091                     l2576:
  2547     0091  3023               	movlw	35
  2548     0092  062B               	xorwf	set_temp@key,w
  2549     0093  1D03               	btfss	3,2
  2550     0094  2896               	goto	u2181
  2551     0095  2897               	goto	u2180
  2552     0096                     u2181:
  2553     0096  2912               	goto	l2600
  2554     0097                     u2180:
  2555     0097                     l2578:
  2556                           
  2557                           ;main.c: 261:         };main.c: 262:         if(sec==0)
  2558     0097  120A  158A  269A  120A  118A  	fcall	_clear_screen
  2559     009C                     l2580:
  2560                           
  2561                           ;main.c: 264:            clear_screen();
  2562     009C  3080               	movlw	128
  2563     009D  00F6               	movwf	clcd_print@addr
  2564     009E  3075               	movlw	(low ((STR_16-__stringbase)| (0+32768)))& (0+255)
  2565     009F  120A  158A  2720  120A  118A  	fcall	_clcd_print
  2566     00A4                     l2582:
  2567                           
  2568                           ;main.c: 265:            flag=1;
  2569     00A4  3090               	movlw	144
  2570     00A5  00F6               	movwf	clcd_print@addr
  2571     00A6  309F               	movlw	(low ((STR_17-__stringbase)| (0+32768)))& (0+255)
  2572     00A7  120A  158A  2720  120A  118A  	fcall	_clcd_print
  2573     00AC                     l2584:
  2574                           
  2575                           ;main.c: 266:            operation_flag = 0x04;
  2576     00AC  3003               	movlw	3
  2577     00AD  1283               	bcf	3,5	;RP0=0, select bank0
  2578     00AE  1303               	bcf	3,6	;RP1=0, select bank0
  2579     00AF  00C0               	movwf	_sec
  2580     00B0                     l2586:
  2581                           
  2582                           ;main.c: 267: 
  2583     00B0  1512               	bsf	18,2	;volatile
  2584                           
  2585                           ;main.c: 268:         }
  2586     00B1  28F9               	goto	l2590
  2587     00B2                     l2588:
  2588                           
  2589                           ;main.c: 269:     };main.c: 271:     {
  2590     00B2  309C               	movlw	156
  2591     00B3  00A6               	movwf	clcd_putch@addr
  2592     00B4  300A               	movlw	10
  2593     00B5  00A0               	movwf	___awmod@divisor
  2594     00B6  3000               	movlw	0
  2595     00B7  00A1               	movwf	___awmod@divisor+1
  2596     00B8  300A               	movlw	10
  2597     00B9  00F2               	movwf	___awdiv@divisor
  2598     00BA  3000               	movlw	0
  2599     00BB  00F3               	movwf	___awdiv@divisor+1
  2600     00BC  0840               	movf	_sec,w
  2601     00BD  00A9               	movwf	??_set_temp
  2602     00BE  01AA               	clrf	??_set_temp+1
  2603     00BF  0829               	movf	??_set_temp,w
  2604     00C0  00F4               	movwf	___awdiv@dividend
  2605     00C1  082A               	movf	??_set_temp+1,w
  2606     00C2  00F5               	movwf	___awdiv@dividend+1
  2607     00C3  120A  118A  2783  120A  118A  	fcall	___awdiv
  2608     00C8  0873               	movf	?___awdiv+1,w
  2609     00C9  1283               	bcf	3,5	;RP0=0, select bank0
  2610     00CA  1303               	bcf	3,6	;RP1=0, select bank0
  2611     00CB  00A3               	movwf	___awmod@dividend+1
  2612     00CC  0872               	movf	?___awdiv,w
  2613     00CD  00A2               	movwf	___awmod@dividend
  2614     00CE  120A  118A  2498  120A  118A  	fcall	___awmod
  2615     00D3  1283               	bcf	3,5	;RP0=0, select bank0
  2616     00D4  1303               	bcf	3,6	;RP1=0, select bank0
  2617     00D5  0820               	movf	?___awmod,w
  2618     00D6  3E30               	addlw	48
  2619     00D7  120A  158A  26AB  120A  118A  	fcall	_clcd_putch
  2620                           
  2621                           ;main.c: 272:         wait=0;
  2622     00DC  309D               	movlw	157
  2623     00DD  1283               	bcf	3,5	;RP0=0, select bank0
  2624     00DE  1303               	bcf	3,6	;RP1=0, select bank0
  2625     00DF  00A6               	movwf	clcd_putch@addr
  2626     00E0  300A               	movlw	10
  2627     00E1  00A0               	movwf	___awmod@divisor
  2628     00E2  3000               	movlw	0
  2629     00E3  00A1               	movwf	___awmod@divisor+1
  2630     00E4  0840               	movf	_sec,w
  2631     00E5  00A9               	movwf	??_set_temp
  2632     00E6  01AA               	clrf	??_set_temp+1
  2633     00E7  0829               	movf	??_set_temp,w
  2634     00E8  00A2               	movwf	___awmod@dividend
  2635     00E9  082A               	movf	??_set_temp+1,w
  2636     00EA  00A3               	movwf	___awmod@dividend+1
  2637     00EB  120A  118A  2498  120A  118A  	fcall	___awmod
  2638     00F0  1283               	bcf	3,5	;RP0=0, select bank0
  2639     00F1  1303               	bcf	3,6	;RP1=0, select bank0
  2640     00F2  0820               	movf	?___awmod,w
  2641     00F3  3E30               	addlw	48
  2642     00F4  120A  158A  26AB  120A  118A  	fcall	_clcd_putch
  2643     00F9                     l2590:
  2644                           
  2645                           ;main.c: 268:         }
  2646     00F9  1283               	bcf	3,5	;RP0=0, select bank0
  2647     00FA  1303               	bcf	3,6	;RP1=0, select bank0
  2648     00FB  0840               	movf	_sec,w
  2649     00FC  1D03               	btfss	3,2
  2650     00FD  28FF               	goto	u2191
  2651     00FE  2900               	goto	u2190
  2652     00FF                     u2191:
  2653     00FF  28B2               	goto	l2588
  2654     0100                     u2190:
  2655     0100                     l2592:
  2656                           
  2657                           ;main.c: 274: 
  2658     0100  0840               	movf	_sec,w
  2659     0101  1D03               	btfss	3,2
  2660     0102  2904               	goto	u2201
  2661     0103  2905               	goto	u2200
  2662     0104                     u2201:
  2663     0104  2912               	goto	l2600
  2664     0105                     u2200:
  2665     0105                     l2594:
  2666                           
  2667                           ;main.c: 275: ;main.c: 276:        clcd_putch(temp/100 + '0' ,(0xC0 + 9));
  2668     0105  120A  158A  269A  120A  118A  	fcall	_clear_screen
  2669     010A                     l2596:
  2670                           
  2671                           ;main.c: 277:        clcd_putch((temp/10)%10 + '0' ,(0xC0 + 10));
  2672     010A  1283               	bcf	3,5	;RP0=0, select bank0
  2673     010B  1303               	bcf	3,6	;RP1=0, select bank0
  2674     010C  01BE               	clrf	_flag
  2675     010D  0ABE               	incf	_flag,f
  2676     010E                     l2598:
  2677                           
  2678                           ;main.c: 278:        clcd_putch(temp%10 + '0' ,(0xC0 + 11));
  2679     010E  3004               	movlw	4
  2680     010F  00C1               	movwf	_operation_flag
  2681     0110  3000               	movlw	0
  2682     0111  00C2               	movwf	_operation_flag+1
  2683     0112                     l2600:
  2684                           
  2685                           ;main.c: 282:     {
  2686     0112  3001               	movlw	1
  2687     0113  07B6               	addwf	set_temp@wait,f
  2688     0114  1803               	skipnc
  2689     0115  0AB7               	incf	set_temp@wait+1,f
  2690     0116  3000               	movlw	0
  2691     0117  07B7               	addwf	set_temp@wait+1,f
  2692     0118  3015               	movlw	21
  2693     0119  0636               	xorwf	set_temp@wait,w
  2694     011A  0437               	iorwf	set_temp@wait+1,w
  2695     011B  1D03               	btfss	3,2
  2696     011C  291E               	goto	u2211
  2697     011D  291F               	goto	u2210
  2698     011E                     u2211:
  2699     011E  2984               	goto	l2612
  2700     011F                     u2210:
  2701     011F                     l2602:
  2702                           
  2703                           ;main.c: 283:         clcd_print("   ",(0xC0 + 9));;main.c: 284:     }
  2704     011F  01B6               	clrf	set_temp@wait
  2705     0120  01B7               	clrf	set_temp@wait+1
  2706     0121                     l2604:
  2707                           
  2708                           ;main.c: 285: 
  2709     0121  09BC               	comf	set_temp@blink,f
  2710     0122                     l2606:
  2711                           
  2712                           ;main.c: 288: void set_time(unsigned char key, int reset_flag)
  2713     0122  30C9               	movlw	201
  2714     0123  00A6               	movwf	clcd_putch@addr
  2715     0124  3064               	movlw	100
  2716     0125  00F2               	movwf	___awdiv@divisor
  2717     0126  3000               	movlw	0
  2718     0127  00F3               	movwf	___awdiv@divisor+1
  2719     0128  083B               	movf	set_temp@temp,w
  2720     0129  00A9               	movwf	??_set_temp
  2721     012A  01AA               	clrf	??_set_temp+1
  2722     012B  0829               	movf	??_set_temp,w
  2723     012C  00F4               	movwf	___awdiv@dividend
  2724     012D  082A               	movf	??_set_temp+1,w
  2725     012E  00F5               	movwf	___awdiv@dividend+1
  2726     012F  120A  118A  2783  120A  118A  	fcall	___awdiv
  2727     0134  0872               	movf	?___awdiv,w
  2728     0135  3E30               	addlw	48
  2729     0136  120A  158A  26AB  120A  118A  	fcall	_clcd_putch
  2730     013B                     l2608:
  2731                           
  2732                           ;main.c: 289: {
  2733     013B  30CA               	movlw	202
  2734     013C  1283               	bcf	3,5	;RP0=0, select bank0
  2735     013D  1303               	bcf	3,6	;RP1=0, select bank0
  2736     013E  00A6               	movwf	clcd_putch@addr
  2737     013F  300A               	movlw	10
  2738     0140  00A0               	movwf	___awmod@divisor
  2739     0141  3000               	movlw	0
  2740     0142  00A1               	movwf	___awmod@divisor+1
  2741     0143  300A               	movlw	10
  2742     0144  00F2               	movwf	___awdiv@divisor
  2743     0145  3000               	movlw	0
  2744     0146  00F3               	movwf	___awdiv@divisor+1
  2745     0147  083B               	movf	set_temp@temp,w
  2746     0148  00A9               	movwf	??_set_temp
  2747     0149  01AA               	clrf	??_set_temp+1
  2748     014A  0829               	movf	??_set_temp,w
  2749     014B  00F4               	movwf	___awdiv@dividend
  2750     014C  082A               	movf	??_set_temp+1,w
  2751     014D  00F5               	movwf	___awdiv@dividend+1
  2752     014E  120A  118A  2783  120A  118A  	fcall	___awdiv
  2753     0153  0873               	movf	?___awdiv+1,w
  2754     0154  1283               	bcf	3,5	;RP0=0, select bank0
  2755     0155  1303               	bcf	3,6	;RP1=0, select bank0
  2756     0156  00A3               	movwf	___awmod@dividend+1
  2757     0157  0872               	movf	?___awdiv,w
  2758     0158  00A2               	movwf	___awmod@dividend
  2759     0159  120A  118A  2498  120A  118A  	fcall	___awmod
  2760     015E  1283               	bcf	3,5	;RP0=0, select bank0
  2761     015F  1303               	bcf	3,6	;RP1=0, select bank0
  2762     0160  0820               	movf	?___awmod,w
  2763     0161  3E30               	addlw	48
  2764     0162  120A  158A  26AB  120A  118A  	fcall	_clcd_putch
  2765     0167                     l2610:
  2766                           
  2767                           ;main.c: 290:     flag=0;
  2768     0167  30CB               	movlw	203
  2769     0168  1283               	bcf	3,5	;RP0=0, select bank0
  2770     0169  1303               	bcf	3,6	;RP1=0, select bank0
  2771     016A  00A6               	movwf	clcd_putch@addr
  2772     016B  300A               	movlw	10
  2773     016C  00A0               	movwf	___awmod@divisor
  2774     016D  3000               	movlw	0
  2775     016E  00A1               	movwf	___awmod@divisor+1
  2776     016F  083B               	movf	set_temp@temp,w
  2777     0170  00A9               	movwf	??_set_temp
  2778     0171  01AA               	clrf	??_set_temp+1
  2779     0172  0829               	movf	??_set_temp,w
  2780     0173  00A2               	movwf	___awmod@dividend
  2781     0174  082A               	movf	??_set_temp+1,w
  2782     0175  00A3               	movwf	___awmod@dividend+1
  2783     0176  120A  118A  2498  120A  118A  	fcall	___awmod
  2784     017B  1283               	bcf	3,5	;RP0=0, select bank0
  2785     017C  1303               	bcf	3,6	;RP1=0, select bank0
  2786     017D  0820               	movf	?___awmod,w
  2787     017E  3E30               	addlw	48
  2788     017F  120A  158A  26AB  120A  118A  	fcall	_clcd_putch
  2789     0184                     l2612:
  2790                           
  2791                           ;main.c: 293:     if(reset_flag == 0x10)
  2792     0184  1283               	bcf	3,5	;RP0=0, select bank0
  2793     0185  1303               	bcf	3,6	;RP1=0, select bank0
  2794     0186  083C               	movf	set_temp@blink,w
  2795     0187  1903               	btfsc	3,2
  2796     0188  298A               	goto	u2221
  2797     0189  298B               	goto	u2220
  2798     018A                     u2221:
  2799     018A  2993               	goto	l135
  2800     018B                     u2220:
  2801     018B                     l2614:
  2802                           
  2803                           ;main.c: 294:     {;main.c: 295:         key_count =0;
  2804     018B  30C9               	movlw	201
  2805     018C  00F6               	movwf	clcd_print@addr
  2806     018D  300E               	movlw	(low (((STR_11+13)-__stringbase)| (0+32768)))& (0+255)
  2807     018E  120A  158A  2720  120A  118A  	fcall	_clcd_print
  2808     0193                     l135:
  2809     0193  0008               	return
  2810     0194                     __end_of_set_temp:
  2811                           
  2812                           	psect	text4
  2813     0E9A                     __ptext4:	
  2814 ;; *************** function _clear_screen *****************
  2815 ;; Defined at:
  2816 ;;		line 196 in file "main.c"
  2817 ;; Parameters:    Size  Location     Type
  2818 ;;		None
  2819 ;; Auto vars:     Size  Location     Type
  2820 ;;		None
  2821 ;; Return value:  Size  Location     Type
  2822 ;;                  1    wreg      void 
  2823 ;; Registers used:
  2824 ;;		wreg, status,2, status,0, pclath, cstack
  2825 ;; Tracked objects:
  2826 ;;		On entry : 0/0
  2827 ;;		On exit  : 0/0
  2828 ;;		Unchanged: 0/0
  2829 ;; Data sizes:     COMMON   BANK0   BANK1   BANK3   BANK2
  2830 ;;      Params:         0       0       0       0       0
  2831 ;;      Locals:         0       0       0       0       0
  2832 ;;      Temps:          2       0       0       0       0
  2833 ;;      Totals:         2       0       0       0       0
  2834 ;;Total ram usage:        2 bytes
  2835 ;; Hardware stack levels used: 1
  2836 ;; Hardware stack levels required when called: 2
  2837 ;; This function calls:
  2838 ;;		_clcd_write
  2839 ;; This function is called by:
  2840 ;;		_main
  2841 ;;		_time_display_screen
  2842 ;;		_set_temp
  2843 ;;		_set_time
  2844 ;; This function uses a non-reentrant model
  2845 ;;
  2846                           
  2847     0E9A                     _clear_screen:	
  2848                           ;psect for function _clear_screen
  2849                           
  2850     0E9A                     l2372:	
  2851                           ;incstack = 0
  2852                           ; Regs used in _clear_screen: [wreg+status,2+status,0+pclath+cstack]
  2853                           
  2854                           
  2855                           ;main.c: 198: 
  2856     0E9A  01F2               	clrf	clcd_write@mode
  2857     0E9B  3001               	movlw	1
  2858     0E9C  120A  158A  277D  120A  158A  	fcall	_clcd_write
  2859     0EA1                     l2374:
  2860                           
  2861                           ;main.c: 199: 
  2862     0EA1  3004               	movlw	4
  2863     0EA2  00F7               	movwf	??_clear_screen+1
  2864     0EA3  303D               	movlw	61
  2865     0EA4  00F6               	movwf	??_clear_screen
  2866     0EA5                     u2427:
  2867     0EA5  0BF6               	decfsz	??_clear_screen,f
  2868     0EA6  2EA5               	goto	u2427
  2869     0EA7  0BF7               	decfsz	??_clear_screen+1,f
  2870     0EA8  2EA5               	goto	u2427
  2871     0EA9  2EAA               	nop2
  2872     0EAA                     l103:
  2873     0EAA  0008               	return
  2874     0EAB                     __end_of_clear_screen:
  2875                           
  2876                           	psect	text5
  2877     07EA                     __ptext5:	
  2878 ;; *************** function ___bmul *****************
  2879 ;; Defined at:
  2880 ;;		line 4 in file "C:\Program Files\Microchip\xc8\v2.45\pic\sources\c99\common\Umul8.c"
  2881 ;; Parameters:    Size  Location     Type
  2882 ;;  multiplier      1    wreg     unsigned char 
  2883 ;;  multiplicand    1    2[COMMON] unsigned char 
  2884 ;; Auto vars:     Size  Location     Type
  2885 ;;  multiplier      1    4[COMMON] unsigned char 
  2886 ;;  product         1    3[COMMON] unsigned char 
  2887 ;; Return value:  Size  Location     Type
  2888 ;;                  1    wreg      unsigned char 
  2889 ;; Registers used:
  2890 ;;		wreg, status,2, status,0, btemp+1
  2891 ;; Tracked objects:
  2892 ;;		On entry : 0/0
  2893 ;;		On exit  : 0/0
  2894 ;;		Unchanged: 0/0
  2895 ;; Data sizes:     COMMON   BANK0   BANK1   BANK3   BANK2
  2896 ;;      Params:         1       0       0       0       0
  2897 ;;      Locals:         2       0       0       0       0
  2898 ;;      Temps:          0       0       0       0       0
  2899 ;;      Totals:         3       0       0       0       0
  2900 ;;Total ram usage:        3 bytes
  2901 ;; Hardware stack levels used: 1
  2902 ;; Hardware stack levels required when called: 1
  2903 ;; This function calls:
  2904 ;;		Nothing
  2905 ;; This function is called by:
  2906 ;;		_set_temp
  2907 ;;		_set_time
  2908 ;; This function uses a non-reentrant model
  2909 ;;
  2910                           
  2911     07EA                     ___bmul:	
  2912                           ;psect for function ___bmul
  2913                           
  2914                           
  2915                           ;incstack = 0
  2916                           ; Regs used in ___bmul: [wreg+status,2+status,0+btemp+1]
  2917                           ;___bmul@multiplier stored from wreg
  2918     07EA  00F4               	movwf	___bmul@multiplier
  2919     07EB                     l1774:
  2920     07EB  01F3               	clrf	___bmul@product
  2921     07EC                     l1776:
  2922     07EC  1C74               	btfss	___bmul@multiplier,0
  2923     07ED  2FEF               	goto	u1131
  2924     07EE  2FF0               	goto	u1130
  2925     07EF                     u1131:
  2926     07EF  2FF4               	goto	l1780
  2927     07F0                     u1130:
  2928     07F0                     l1778:
  2929     07F0  0872               	movf	___bmul@multiplicand,w
  2930     07F1  00FF               	movwf	btemp+1
  2931     07F2  087F               	movf	btemp+1,w
  2932     07F3  07F3               	addwf	___bmul@product,f
  2933     07F4                     l1780:
  2934     07F4  1003               	clrc
  2935     07F5  0DF2               	rlf	___bmul@multiplicand,f
  2936     07F6                     l1782:
  2937     07F6  1003               	clrc
  2938     07F7  0CF4               	rrf	___bmul@multiplier,f
  2939     07F8                     l1784:
  2940     07F8  0874               	movf	___bmul@multiplier,w
  2941     07F9  1D03               	btfss	3,2
  2942     07FA  2FFC               	goto	u1141
  2943     07FB  2FFD               	goto	u1140
  2944     07FC                     u1141:
  2945     07FC  2FEC               	goto	l1776
  2946     07FD                     u1140:
  2947     07FD                     l1786:
  2948     07FD  0873               	movf	___bmul@product,w
  2949     07FE                     l404:
  2950     07FE  0008               	return
  2951     07FF                     __end_of___bmul:
  2952                           
  2953                           	psect	text6
  2954     0498                     __ptext6:	
  2955 ;; *************** function ___awmod *****************
  2956 ;; Defined at:
  2957 ;;		line 5 in file "C:\Program Files\Microchip\xc8\v2.45\pic\sources\c99\common\awmod.c"
  2958 ;; Parameters:    Size  Location     Type
  2959 ;;  divisor         2    0[BANK0 ] int 
  2960 ;;  dividend        2    2[BANK0 ] int 
  2961 ;; Auto vars:     Size  Location     Type
  2962 ;;  sign            1    5[BANK0 ] unsigned char 
  2963 ;;  counter         1    4[BANK0 ] unsigned char 
  2964 ;; Return value:  Size  Location     Type
  2965 ;;                  2    0[BANK0 ] int 
  2966 ;; Registers used:
  2967 ;;		wreg, status,2, status,0, btemp+1
  2968 ;; Tracked objects:
  2969 ;;		On entry : 0/0
  2970 ;;		On exit  : 0/0
  2971 ;;		Unchanged: 0/0
  2972 ;; Data sizes:     COMMON   BANK0   BANK1   BANK3   BANK2
  2973 ;;      Params:         0       4       0       0       0
  2974 ;;      Locals:         0       2       0       0       0
  2975 ;;      Temps:          0       0       0       0       0
  2976 ;;      Totals:         0       6       0       0       0
  2977 ;;Total ram usage:        6 bytes
  2978 ;; Hardware stack levels used: 1
  2979 ;; Hardware stack levels required when called: 1
  2980 ;; This function calls:
  2981 ;;		Nothing
  2982 ;; This function is called by:
  2983 ;;		_time_display_screen
  2984 ;;		_set_temp
  2985 ;;		_set_time
  2986 ;; This function uses a non-reentrant model
  2987 ;;
  2988                           
  2989     0498                     ___awmod:	
  2990                           ;psect for function ___awmod
  2991                           
  2992     0498                     l2386:	
  2993                           ;incstack = 0
  2994                           ; Regs used in ___awmod: [wreg+status,2+status,0+btemp+1]
  2995                           
  2996     0498  1283               	bcf	3,5	;RP0=0, select bank0
  2997     0499  1303               	bcf	3,6	;RP1=0, select bank0
  2998     049A  01A5               	clrf	___awmod@sign
  2999     049B                     l2388:
  3000     049B  1FA3               	btfss	___awmod@dividend+1,7
  3001     049C  2C9E               	goto	u1891
  3002     049D  2C9F               	goto	u1890
  3003     049E                     u1891:
  3004     049E  2CA6               	goto	l2394
  3005     049F                     u1890:
  3006     049F                     l2390:
  3007     049F  09A2               	comf	___awmod@dividend,f
  3008     04A0  09A3               	comf	___awmod@dividend+1,f
  3009     04A1  0AA2               	incf	___awmod@dividend,f
  3010     04A2  1903               	skipnz
  3011     04A3  0AA3               	incf	___awmod@dividend+1,f
  3012     04A4                     l2392:
  3013     04A4  01A5               	clrf	___awmod@sign
  3014     04A5  0AA5               	incf	___awmod@sign,f
  3015     04A6                     l2394:
  3016     04A6  1FA1               	btfss	___awmod@divisor+1,7
  3017     04A7  2CA9               	goto	u1901
  3018     04A8  2CAA               	goto	u1900
  3019     04A9                     u1901:
  3020     04A9  2CAF               	goto	l2398
  3021     04AA                     u1900:
  3022     04AA                     l2396:
  3023     04AA  09A0               	comf	___awmod@divisor,f
  3024     04AB  09A1               	comf	___awmod@divisor+1,f
  3025     04AC  0AA0               	incf	___awmod@divisor,f
  3026     04AD  1903               	skipnz
  3027     04AE  0AA1               	incf	___awmod@divisor+1,f
  3028     04AF                     l2398:
  3029     04AF  0820               	movf	___awmod@divisor,w
  3030     04B0  0421               	iorwf	___awmod@divisor+1,w
  3031     04B1  1903               	btfsc	3,2
  3032     04B2  2CB4               	goto	u1911
  3033     04B3  2CB5               	goto	u1910
  3034     04B4                     u1911:
  3035     04B4  2CE4               	goto	l2416
  3036     04B5                     u1910:
  3037     04B5                     l2400:
  3038     04B5  01A4               	clrf	___awmod@counter
  3039     04B6  0AA4               	incf	___awmod@counter,f
  3040     04B7  2CC3               	goto	l2406
  3041     04B8                     l2402:
  3042     04B8  3001               	movlw	1
  3043     04B9                     u1925:
  3044     04B9  1003               	clrc
  3045     04BA  0DA0               	rlf	___awmod@divisor,f
  3046     04BB  0DA1               	rlf	___awmod@divisor+1,f
  3047     04BC  3EFF               	addlw	-1
  3048     04BD  1D03               	skipz
  3049     04BE  2CB9               	goto	u1925
  3050     04BF                     l2404:
  3051     04BF  3001               	movlw	1
  3052     04C0  00FF               	movwf	btemp+1
  3053     04C1  087F               	movf	btemp+1,w
  3054     04C2  07A4               	addwf	___awmod@counter,f
  3055     04C3                     l2406:
  3056     04C3  1FA1               	btfss	___awmod@divisor+1,7
  3057     04C4  2CC6               	goto	u1931
  3058     04C5  2CC7               	goto	u1930
  3059     04C6                     u1931:
  3060     04C6  2CB8               	goto	l2402
  3061     04C7                     u1930:
  3062     04C7                     l2408:
  3063     04C7  0821               	movf	___awmod@divisor+1,w
  3064     04C8  0223               	subwf	___awmod@dividend+1,w
  3065     04C9  1D03               	skipz
  3066     04CA  2CCD               	goto	u1945
  3067     04CB  0820               	movf	___awmod@divisor,w
  3068     04CC  0222               	subwf	___awmod@dividend,w
  3069     04CD                     u1945:
  3070     04CD  1C03               	skipc
  3071     04CE  2CD0               	goto	u1941
  3072     04CF  2CD1               	goto	u1940
  3073     04D0                     u1941:
  3074     04D0  2CD7               	goto	l2412
  3075     04D1                     u1940:
  3076     04D1                     l2410:
  3077     04D1  0820               	movf	___awmod@divisor,w
  3078     04D2  02A2               	subwf	___awmod@dividend,f
  3079     04D3  0821               	movf	___awmod@divisor+1,w
  3080     04D4  1C03               	skipc
  3081     04D5  03A3               	decf	___awmod@dividend+1,f
  3082     04D6  02A3               	subwf	___awmod@dividend+1,f
  3083     04D7                     l2412:
  3084     04D7  3001               	movlw	1
  3085     04D8                     u1955:
  3086     04D8  1003               	clrc
  3087     04D9  0CA1               	rrf	___awmod@divisor+1,f
  3088     04DA  0CA0               	rrf	___awmod@divisor,f
  3089     04DB  3EFF               	addlw	-1
  3090     04DC  1D03               	skipz
  3091     04DD  2CD8               	goto	u1955
  3092     04DE                     l2414:
  3093     04DE  3001               	movlw	1
  3094     04DF  02A4               	subwf	___awmod@counter,f
  3095     04E0  1D03               	btfss	3,2
  3096     04E1  2CE3               	goto	u1961
  3097     04E2  2CE4               	goto	u1960
  3098     04E3                     u1961:
  3099     04E3  2CC7               	goto	l2408
  3100     04E4                     u1960:
  3101     04E4                     l2416:
  3102     04E4  0825               	movf	___awmod@sign,w
  3103     04E5  1903               	btfsc	3,2
  3104     04E6  2CE8               	goto	u1971
  3105     04E7  2CE9               	goto	u1970
  3106     04E8                     u1971:
  3107     04E8  2CEE               	goto	l2420
  3108     04E9                     u1970:
  3109     04E9                     l2418:
  3110     04E9  09A2               	comf	___awmod@dividend,f
  3111     04EA  09A3               	comf	___awmod@dividend+1,f
  3112     04EB  0AA2               	incf	___awmod@dividend,f
  3113     04EC  1903               	skipnz
  3114     04ED  0AA3               	incf	___awmod@dividend+1,f
  3115     04EE                     l2420:
  3116     04EE  0823               	movf	___awmod@dividend+1,w
  3117     04EF  00A1               	movwf	?___awmod+1
  3118     04F0  0822               	movf	___awmod@dividend,w
  3119     04F1  00A0               	movwf	?___awmod
  3120     04F2                     l544:
  3121     04F2  0008               	return
  3122     04F3                     __end_of___awmod:
  3123                           
  3124                           	psect	text7
  3125     0783                     __ptext7:	
  3126 ;; *************** function ___awdiv *****************
  3127 ;; Defined at:
  3128 ;;		line 5 in file "C:\Program Files\Microchip\xc8\v2.45\pic\sources\c99\common\awdiv.c"
  3129 ;; Parameters:    Size  Location     Type
  3130 ;;  divisor         2    2[COMMON] int 
  3131 ;;  dividend        2    4[COMMON] int 
  3132 ;; Auto vars:     Size  Location     Type
  3133 ;;  quotient        2    8[COMMON] int 
  3134 ;;  sign            1    7[COMMON] unsigned char 
  3135 ;;  counter         1    6[COMMON] unsigned char 
  3136 ;; Return value:  Size  Location     Type
  3137 ;;                  2    2[COMMON] int 
  3138 ;; Registers used:
  3139 ;;		wreg, status,2, status,0, btemp+1
  3140 ;; Tracked objects:
  3141 ;;		On entry : 0/0
  3142 ;;		On exit  : 0/0
  3143 ;;		Unchanged: 0/0
  3144 ;; Data sizes:     COMMON   BANK0   BANK1   BANK3   BANK2
  3145 ;;      Params:         4       0       0       0       0
  3146 ;;      Locals:         4       0       0       0       0
  3147 ;;      Temps:          0       0       0       0       0
  3148 ;;      Totals:         8       0       0       0       0
  3149 ;;Total ram usage:        8 bytes
  3150 ;; Hardware stack levels used: 1
  3151 ;; Hardware stack levels required when called: 1
  3152 ;; This function calls:
  3153 ;;		Nothing
  3154 ;; This function is called by:
  3155 ;;		_time_display_screen
  3156 ;;		_set_temp
  3157 ;;		_set_time
  3158 ;; This function uses a non-reentrant model
  3159 ;;
  3160                           
  3161     0783                     ___awdiv:	
  3162                           ;psect for function ___awdiv
  3163                           
  3164     0783                     l1790:	
  3165                           ;incstack = 0
  3166                           ; Regs used in ___awdiv: [wreg+status,2+status,0+btemp+1]
  3167                           
  3168     0783  01F7               	clrf	___awdiv@sign
  3169     0784                     l1792:
  3170     0784  1FF3               	btfss	___awdiv@divisor+1,7
  3171     0785  2F87               	goto	u1151
  3172     0786  2F88               	goto	u1150
  3173     0787                     u1151:
  3174     0787  2F8F               	goto	l1798
  3175     0788                     u1150:
  3176     0788                     l1794:
  3177     0788  09F2               	comf	___awdiv@divisor,f
  3178     0789  09F3               	comf	___awdiv@divisor+1,f
  3179     078A  0AF2               	incf	___awdiv@divisor,f
  3180     078B  1903               	skipnz
  3181     078C  0AF3               	incf	___awdiv@divisor+1,f
  3182     078D                     l1796:
  3183     078D  01F7               	clrf	___awdiv@sign
  3184     078E  0AF7               	incf	___awdiv@sign,f
  3185     078F                     l1798:
  3186     078F  1FF5               	btfss	___awdiv@dividend+1,7
  3187     0790  2F92               	goto	u1161
  3188     0791  2F93               	goto	u1160
  3189     0792                     u1161:
  3190     0792  2F9C               	goto	l1804
  3191     0793                     u1160:
  3192     0793                     l1800:
  3193     0793  09F4               	comf	___awdiv@dividend,f
  3194     0794  09F5               	comf	___awdiv@dividend+1,f
  3195     0795  0AF4               	incf	___awdiv@dividend,f
  3196     0796  1903               	skipnz
  3197     0797  0AF5               	incf	___awdiv@dividend+1,f
  3198     0798                     l1802:
  3199     0798  3001               	movlw	1
  3200     0799  00FF               	movwf	btemp+1
  3201     079A  087F               	movf	btemp+1,w
  3202     079B  06F7               	xorwf	___awdiv@sign,f
  3203     079C                     l1804:
  3204     079C  01F8               	clrf	___awdiv@quotient
  3205     079D  01F9               	clrf	___awdiv@quotient+1
  3206     079E                     l1806:
  3207     079E  0872               	movf	___awdiv@divisor,w
  3208     079F  0473               	iorwf	___awdiv@divisor+1,w
  3209     07A0  1903               	btfsc	3,2
  3210     07A1  2FA3               	goto	u1171
  3211     07A2  2FA4               	goto	u1170
  3212     07A3                     u1171:
  3213     07A3  2FDB               	goto	l1826
  3214     07A4                     u1170:
  3215     07A4                     l1808:
  3216     07A4  01F6               	clrf	___awdiv@counter
  3217     07A5  0AF6               	incf	___awdiv@counter,f
  3218     07A6  2FB2               	goto	l1814
  3219     07A7                     l1810:
  3220     07A7  3001               	movlw	1
  3221     07A8                     u1185:
  3222     07A8  1003               	clrc
  3223     07A9  0DF2               	rlf	___awdiv@divisor,f
  3224     07AA  0DF3               	rlf	___awdiv@divisor+1,f
  3225     07AB  3EFF               	addlw	-1
  3226     07AC  1D03               	skipz
  3227     07AD  2FA8               	goto	u1185
  3228     07AE                     l1812:
  3229     07AE  3001               	movlw	1
  3230     07AF  00FF               	movwf	btemp+1
  3231     07B0  087F               	movf	btemp+1,w
  3232     07B1  07F6               	addwf	___awdiv@counter,f
  3233     07B2                     l1814:
  3234     07B2  1FF3               	btfss	___awdiv@divisor+1,7
  3235     07B3  2FB5               	goto	u1191
  3236     07B4  2FB6               	goto	u1190
  3237     07B5                     u1191:
  3238     07B5  2FA7               	goto	l1810
  3239     07B6                     u1190:
  3240     07B6                     l1816:
  3241     07B6  3001               	movlw	1
  3242     07B7                     u1205:
  3243     07B7  1003               	clrc
  3244     07B8  0DF8               	rlf	___awdiv@quotient,f
  3245     07B9  0DF9               	rlf	___awdiv@quotient+1,f
  3246     07BA  3EFF               	addlw	-1
  3247     07BB  1D03               	skipz
  3248     07BC  2FB7               	goto	u1205
  3249     07BD  0873               	movf	___awdiv@divisor+1,w
  3250     07BE  0275               	subwf	___awdiv@dividend+1,w
  3251     07BF  1D03               	skipz
  3252     07C0  2FC3               	goto	u1215
  3253     07C1  0872               	movf	___awdiv@divisor,w
  3254     07C2  0274               	subwf	___awdiv@dividend,w
  3255     07C3                     u1215:
  3256     07C3  1C03               	skipc
  3257     07C4  2FC6               	goto	u1211
  3258     07C5  2FC7               	goto	u1210
  3259     07C6                     u1211:
  3260     07C6  2FCE               	goto	l1822
  3261     07C7                     u1210:
  3262     07C7                     l1818:
  3263     07C7  0872               	movf	___awdiv@divisor,w
  3264     07C8  02F4               	subwf	___awdiv@dividend,f
  3265     07C9  0873               	movf	___awdiv@divisor+1,w
  3266     07CA  1C03               	skipc
  3267     07CB  03F5               	decf	___awdiv@dividend+1,f
  3268     07CC  02F5               	subwf	___awdiv@dividend+1,f
  3269     07CD                     l1820:
  3270     07CD  1478               	bsf	___awdiv@quotient,0
  3271     07CE                     l1822:
  3272     07CE  3001               	movlw	1
  3273     07CF                     u1225:
  3274     07CF  1003               	clrc
  3275     07D0  0CF3               	rrf	___awdiv@divisor+1,f
  3276     07D1  0CF2               	rrf	___awdiv@divisor,f
  3277     07D2  3EFF               	addlw	-1
  3278     07D3  1D03               	skipz
  3279     07D4  2FCF               	goto	u1225
  3280     07D5                     l1824:
  3281     07D5  3001               	movlw	1
  3282     07D6  02F6               	subwf	___awdiv@counter,f
  3283     07D7  1D03               	btfss	3,2
  3284     07D8  2FDA               	goto	u1231
  3285     07D9  2FDB               	goto	u1230
  3286     07DA                     u1231:
  3287     07DA  2FB6               	goto	l1816
  3288     07DB                     u1230:
  3289     07DB                     l1826:
  3290     07DB  0877               	movf	___awdiv@sign,w
  3291     07DC  1903               	btfsc	3,2
  3292     07DD  2FDF               	goto	u1241
  3293     07DE  2FE0               	goto	u1240
  3294     07DF                     u1241:
  3295     07DF  2FE5               	goto	l1830
  3296     07E0                     u1240:
  3297     07E0                     l1828:
  3298     07E0  09F8               	comf	___awdiv@quotient,f
  3299     07E1  09F9               	comf	___awdiv@quotient+1,f
  3300     07E2  0AF8               	incf	___awdiv@quotient,f
  3301     07E3  1903               	skipnz
  3302     07E4  0AF9               	incf	___awdiv@quotient+1,f
  3303     07E5                     l1830:
  3304     07E5  0879               	movf	___awdiv@quotient+1,w
  3305     07E6  00F3               	movwf	?___awdiv+1
  3306     07E7  0878               	movf	___awdiv@quotient,w
  3307     07E8  00F2               	movwf	?___awdiv
  3308     07E9                     l531:
  3309     07E9  0008               	return
  3310     07EA                     __end_of___awdiv:
  3311                           
  3312                           	psect	text8
  3313     0EFD                     __ptext8:	
  3314 ;; *************** function _read_matrix_keypad *****************
  3315 ;; Defined at:
  3316 ;;		line 114 in file "matrix_keypad.c"
  3317 ;; Parameters:    Size  Location     Type
  3318 ;;  mode            1    wreg     unsigned char 
  3319 ;; Auto vars:     Size  Location     Type
  3320 ;;  mode            1    4[COMMON] unsigned char 
  3321 ;;  key             1    5[COMMON] unsigned char 
  3322 ;; Return value:  Size  Location     Type
  3323 ;;                  1    wreg      unsigned char 
  3324 ;; Registers used:
  3325 ;;		wreg, status,2, status,0, btemp+1, pclath, cstack
  3326 ;; Tracked objects:
  3327 ;;		On entry : 0/0
  3328 ;;		On exit  : 0/0
  3329 ;;		Unchanged: 0/0
  3330 ;; Data sizes:     COMMON   BANK0   BANK1   BANK3   BANK2
  3331 ;;      Params:         0       0       0       0       0
  3332 ;;      Locals:         2       0       0       0       0
  3333 ;;      Temps:          0       0       0       0       0
  3334 ;;      Totals:         2       0       0       0       0
  3335 ;;Total ram usage:        2 bytes
  3336 ;; Hardware stack levels used: 1
  3337 ;; Hardware stack levels required when called: 2
  3338 ;; This function calls:
  3339 ;;		_scan_keypad
  3340 ;; This function is called by:
  3341 ;;		_main
  3342 ;; This function uses a non-reentrant model
  3343 ;;
  3344                           
  3345     0EFD                     _read_matrix_keypad:	
  3346                           ;psect for function _read_matrix_keypad
  3347                           
  3348                           
  3349                           ;incstack = 0
  3350                           ; Regs used in _read_matrix_keypad: [wreg+status,2+status,0+btemp+1+pclath+cstack]
  3351                           ;read_matrix_keypad@mode stored from wreg
  3352     0EFD  00F4               	movwf	read_matrix_keypad@mode
  3353     0EFE                     l1886:
  3354                           
  3355                           ;matrix_keypad.c: 114: unsigned char read_matrix_keypad(unsigned char mode);matrix_keypa
      +                          d.c: 115: {;matrix_keypad.c: 116:     static unsigned char once = 1;;matrix_keypad.c: 11
      +                          7:     unsigned char key;;matrix_keypad.c: 119:     key = scan_keypad();
  3356     0EFE  120A  118A  26C8  120A  158A  	fcall	_scan_keypad
  3357     0F03  00F5               	movwf	read_matrix_keypad@key
  3358     0F04                     l1888:
  3359                           
  3360                           ;matrix_keypad.c: 121:     if (mode == 0)
  3361     0F04  0874               	movf	read_matrix_keypad@mode,w
  3362     0F05  1D03               	btfss	3,2
  3363     0F06  2F08               	goto	u1341
  3364     0F07  2F09               	goto	u1340
  3365     0F08                     u1341:
  3366     0F08  2F0B               	goto	l1896
  3367     0F09                     u1340:
  3368     0F09                     l1890:
  3369                           
  3370                           ;matrix_keypad.c: 122:     {;matrix_keypad.c: 123:         return key;
  3371     0F09  0875               	movf	read_matrix_keypad@key,w
  3372     0F0A  2F1F               	goto	l257
  3373     0F0B                     l1896:
  3374                           
  3375                           ;matrix_keypad.c: 126:     {;matrix_keypad.c: 127:         if ((key != 0xFF) && once)
  3376     0F0B  0A75               	incf	read_matrix_keypad@key,w
  3377     0F0C  1903               	btfsc	3,2
  3378     0F0D  2F0F               	goto	u1351
  3379     0F0E  2F10               	goto	u1350
  3380     0F0F                     u1351:
  3381     0F0F  2F17               	goto	l1908
  3382     0F10                     u1350:
  3383     0F10                     l1898:
  3384     0F10  087B               	movf	read_matrix_keypad@once,w
  3385     0F11  1903               	btfsc	3,2
  3386     0F12  2F14               	goto	u1361
  3387     0F13  2F15               	goto	u1360
  3388     0F14                     u1361:
  3389     0F14  2F17               	goto	l1908
  3390     0F15                     u1360:
  3391     0F15                     l1900:
  3392                           
  3393                           ;matrix_keypad.c: 128:         {;matrix_keypad.c: 129:             once = 0;
  3394     0F15  01FB               	clrf	read_matrix_keypad@once
  3395     0F16  2F09               	goto	l1890
  3396     0F17                     l1908:
  3397     0F17  0A75               	incf	read_matrix_keypad@key,w
  3398     0F18  1D03               	btfss	3,2
  3399     0F19  2F1B               	goto	u1371
  3400     0F1A  2F1C               	goto	u1370
  3401     0F1B                     u1371:
  3402     0F1B  2F1E               	goto	l1912
  3403     0F1C                     u1370:
  3404     0F1C                     l1910:
  3405                           
  3406                           ;matrix_keypad.c: 134:         {;matrix_keypad.c: 135:             once = 1;
  3407     0F1C  01FB               	clrf	read_matrix_keypad@once
  3408     0F1D  0AFB               	incf	read_matrix_keypad@once,f
  3409     0F1E                     l1912:
  3410                           
  3411                           ;matrix_keypad.c: 139:     return 0xFF;
  3412     0F1E  30FF               	movlw	255
  3413     0F1F                     l257:
  3414     0F1F  0008               	return
  3415     0F20                     __end_of_read_matrix_keypad:
  3416                           
  3417                           	psect	text9
  3418     06C8                     __ptext9:	
  3419 ;; *************** function _scan_keypad *****************
  3420 ;; Defined at:
  3421 ;;		line 24 in file "matrix_keypad.c"
  3422 ;; Parameters:    Size  Location     Type
  3423 ;;		None
  3424 ;; Auto vars:     Size  Location     Type
  3425 ;;  i               2    2[COMMON] int 
  3426 ;; Return value:  Size  Location     Type
  3427 ;;                  1    wreg      unsigned char 
  3428 ;; Registers used:
  3429 ;;		wreg, status,2, status,0, btemp+1
  3430 ;; Tracked objects:
  3431 ;;		On entry : 0/0
  3432 ;;		On exit  : 0/0
  3433 ;;		Unchanged: 0/0
  3434 ;; Data sizes:     COMMON   BANK0   BANK1   BANK3   BANK2
  3435 ;;      Params:         0       0       0       0       0
  3436 ;;      Locals:         2       0       0       0       0
  3437 ;;      Temps:          0       0       0       0       0
  3438 ;;      Totals:         2       0       0       0       0
  3439 ;;Total ram usage:        2 bytes
  3440 ;; Hardware stack levels used: 1
  3441 ;; Hardware stack levels required when called: 1
  3442 ;; This function calls:
  3443 ;;		Nothing
  3444 ;; This function is called by:
  3445 ;;		_read_matrix_keypad
  3446 ;; This function uses a non-reentrant model
  3447 ;;
  3448                           
  3449     06C8                     _scan_keypad:	
  3450                           ;psect for function _scan_keypad
  3451                           
  3452     06C8                     l1670:	
  3453                           ;incstack = 0
  3454                           ; Regs used in _scan_keypad: [wreg+status,2+status,0+btemp+1]
  3455                           
  3456                           
  3457                           ;matrix_keypad.c: 26:     int i;;matrix_keypad.c: 28:     RD3 = 0;
  3458     06C8  1283               	bcf	3,5	;RP0=0, select bank0
  3459     06C9  1303               	bcf	3,6	;RP1=0, select bank0
  3460     06CA  1188               	bcf	8,3	;volatile
  3461                           
  3462                           ;matrix_keypad.c: 29:     RD2 = 1;
  3463     06CB  1508               	bsf	8,2	;volatile
  3464                           
  3465                           ;matrix_keypad.c: 30:     RD1 = 1;
  3466     06CC  1488               	bsf	8,1	;volatile
  3467                           
  3468                           ;matrix_keypad.c: 31:     RD0 = 1;
  3469     06CD  1408               	bsf	8,0	;volatile
  3470     06CE                     l1672:
  3471                           
  3472                           ;matrix_keypad.c: 33:     for (i = 100; i--; );
  3473     06CE  3064               	movlw	100
  3474     06CF  00F2               	movwf	scan_keypad@i
  3475     06D0  3000               	movlw	0
  3476     06D1  00F3               	movwf	scan_keypad@i+1
  3477     06D2                     l1674:
  3478     06D2  30FF               	movlw	255
  3479     06D3  07F2               	addwf	scan_keypad@i,f
  3480     06D4  1803               	skipnc
  3481     06D5  0AF3               	incf	scan_keypad@i+1,f
  3482     06D6  30FF               	movlw	255
  3483     06D7  07F3               	addwf	scan_keypad@i+1,f
  3484     06D8  0A72               	incf	scan_keypad@i,w
  3485     06D9  1D03               	skipz
  3486     06DA  2EDF               	goto	u971
  3487     06DB  0A73               	incf	scan_keypad@i+1,w
  3488     06DC  1D03               	btfss	3,2
  3489     06DD  2EDF               	goto	u971
  3490     06DE  2EE0               	goto	u970
  3491     06DF                     u971:
  3492     06DF  2ED2               	goto	l1674
  3493     06E0                     u970:
  3494     06E0                     l224:
  3495                           
  3496                           ;matrix_keypad.c: 35:     if (RB0 == 0)
  3497     06E0  1283               	bcf	3,5	;RP0=0, select bank0
  3498     06E1  1303               	bcf	3,6	;RP1=0, select bank0
  3499     06E2  1806               	btfsc	6,0	;volatile
  3500     06E3  2EE5               	goto	u981
  3501     06E4  2EE6               	goto	u980
  3502     06E5                     u981:
  3503     06E5  2EE8               	goto	l225
  3504     06E6                     u980:
  3505     06E6                     l1676:
  3506                           
  3507                           ;matrix_keypad.c: 36:     {;matrix_keypad.c: 37:         return 1;
  3508     06E6  3001               	movlw	1
  3509     06E7  2F82               	goto	l226
  3510     06E8                     l225:	
  3511                           ;matrix_keypad.c: 39:     else if (RB1 == 0)
  3512                           
  3513     06E8  1886               	btfsc	6,1	;volatile
  3514     06E9  2EEB               	goto	u991
  3515     06EA  2EEC               	goto	u990
  3516     06EB                     u991:
  3517     06EB  2EEE               	goto	l228
  3518     06EC                     u990:
  3519     06EC                     l1682:
  3520                           
  3521                           ;matrix_keypad.c: 40:     {;matrix_keypad.c: 41:         return 2;
  3522     06EC  3002               	movlw	2
  3523     06ED  2F82               	goto	l226
  3524     06EE                     l228:	
  3525                           ;matrix_keypad.c: 43:     else if (RB2 == 0)
  3526                           
  3527     06EE  1906               	btfsc	6,2	;volatile
  3528     06EF  2EF1               	goto	u1001
  3529     06F0  2EF2               	goto	u1000
  3530     06F1                     u1001:
  3531     06F1  2EF4               	goto	l227
  3532     06F2                     u1000:
  3533     06F2                     l1688:
  3534                           
  3535                           ;matrix_keypad.c: 44:     {;matrix_keypad.c: 45:         return 3;
  3536     06F2  3003               	movlw	3
  3537     06F3  2F82               	goto	l226
  3538     06F4                     l227:
  3539                           
  3540                           ;matrix_keypad.c: 48:     RD3 = 1;
  3541     06F4  1588               	bsf	8,3	;volatile
  3542                           
  3543                           ;matrix_keypad.c: 49:     RD2 = 0;
  3544     06F5  1108               	bcf	8,2	;volatile
  3545                           
  3546                           ;matrix_keypad.c: 50:     RD1 = 1;
  3547     06F6  1488               	bsf	8,1	;volatile
  3548                           
  3549                           ;matrix_keypad.c: 51:     RD0 = 1;
  3550     06F7  1408               	bsf	8,0	;volatile
  3551     06F8                     l1692:
  3552                           
  3553                           ;matrix_keypad.c: 53:    for (i = 100; i > 0; i--)
  3554     06F8  3064               	movlw	100
  3555     06F9  00F2               	movwf	scan_keypad@i
  3556     06FA  3000               	movlw	0
  3557     06FB  00F3               	movwf	scan_keypad@i+1
  3558     06FC                     l1698:
  3559                           
  3560                           ;matrix_keypad.c: 54:    {;matrix_keypad.c: 56:    }
  3561     06FC  30FF               	movlw	255
  3562     06FD  07F2               	addwf	scan_keypad@i,f
  3563     06FE  1803               	skipnc
  3564     06FF  0AF3               	incf	scan_keypad@i+1,f
  3565     0700  30FF               	movlw	255
  3566     0701  07F3               	addwf	scan_keypad@i+1,f
  3567     0702                     l1700:
  3568     0702  0873               	movf	scan_keypad@i+1,w
  3569     0703  3A80               	xorlw	128
  3570     0704  00FF               	movwf	btemp+1
  3571     0705  3080               	movlw	128
  3572     0706  027F               	subwf	btemp+1,w
  3573     0707  1D03               	skipz
  3574     0708  2F0B               	goto	u1015
  3575     0709  3001               	movlw	1
  3576     070A  0272               	subwf	scan_keypad@i,w
  3577     070B                     u1015:
  3578     070B  1803               	skipnc
  3579     070C  2F0E               	goto	u1011
  3580     070D  2F0F               	goto	u1010
  3581     070E                     u1011:
  3582     070E  2EFC               	goto	l1698
  3583     070F                     u1010:
  3584     070F                     l232:
  3585                           
  3586                           ;matrix_keypad.c: 58:     if (RB0 == 0)
  3587     070F  1283               	bcf	3,5	;RP0=0, select bank0
  3588     0710  1303               	bcf	3,6	;RP1=0, select bank0
  3589     0711  1806               	btfsc	6,0	;volatile
  3590     0712  2F14               	goto	u1021
  3591     0713  2F15               	goto	u1020
  3592     0714                     u1021:
  3593     0714  2F17               	goto	l233
  3594     0715                     u1020:
  3595     0715                     l1702:
  3596                           
  3597                           ;matrix_keypad.c: 59:     {;matrix_keypad.c: 60:         return 4;
  3598     0715  3004               	movlw	4
  3599     0716  2F82               	goto	l226
  3600     0717                     l233:	
  3601                           ;matrix_keypad.c: 62:     else if (RB1 == 0)
  3602                           
  3603     0717  1886               	btfsc	6,1	;volatile
  3604     0718  2F1A               	goto	u1031
  3605     0719  2F1B               	goto	u1030
  3606     071A                     u1031:
  3607     071A  2F1D               	goto	l235
  3608     071B                     u1030:
  3609     071B                     l1708:
  3610                           
  3611                           ;matrix_keypad.c: 63:     {;matrix_keypad.c: 64:         return 5;
  3612     071B  3005               	movlw	5
  3613     071C  2F82               	goto	l226
  3614     071D                     l235:	
  3615                           ;matrix_keypad.c: 66:     else if (RB2 == 0)
  3616                           
  3617     071D  1906               	btfsc	6,2	;volatile
  3618     071E  2F20               	goto	u1041
  3619     071F  2F21               	goto	u1040
  3620     0720                     u1041:
  3621     0720  2F23               	goto	l234
  3622     0721                     u1040:
  3623     0721                     l1714:
  3624                           
  3625                           ;matrix_keypad.c: 67:     {;matrix_keypad.c: 68:         return 6;
  3626     0721  3006               	movlw	6
  3627     0722  2F82               	goto	l226
  3628     0723                     l234:
  3629                           
  3630                           ;matrix_keypad.c: 71:     RD3 = 1;
  3631     0723  1588               	bsf	8,3	;volatile
  3632                           
  3633                           ;matrix_keypad.c: 72:     RD2 = 1;
  3634     0724  1508               	bsf	8,2	;volatile
  3635                           
  3636                           ;matrix_keypad.c: 73:     RD1 = 0;
  3637     0725  1088               	bcf	8,1	;volatile
  3638                           
  3639                           ;matrix_keypad.c: 74:     RD0 = 1;
  3640     0726  1408               	bsf	8,0	;volatile
  3641     0727                     l1718:
  3642                           
  3643                           ;matrix_keypad.c: 76:     for (i = 100; i > 0; i--);
  3644     0727  3064               	movlw	100
  3645     0728  00F2               	movwf	scan_keypad@i
  3646     0729  3000               	movlw	0
  3647     072A  00F3               	movwf	scan_keypad@i+1
  3648     072B                     l1724:
  3649     072B  30FF               	movlw	255
  3650     072C  07F2               	addwf	scan_keypad@i,f
  3651     072D  1803               	skipnc
  3652     072E  0AF3               	incf	scan_keypad@i+1,f
  3653     072F  30FF               	movlw	255
  3654     0730  07F3               	addwf	scan_keypad@i+1,f
  3655     0731                     l1726:
  3656     0731  0873               	movf	scan_keypad@i+1,w
  3657     0732  3A80               	xorlw	128
  3658     0733  00FF               	movwf	btemp+1
  3659     0734  3080               	movlw	128
  3660     0735  027F               	subwf	btemp+1,w
  3661     0736  1D03               	skipz
  3662     0737  2F3A               	goto	u1055
  3663     0738  3001               	movlw	1
  3664     0739  0272               	subwf	scan_keypad@i,w
  3665     073A                     u1055:
  3666     073A  1803               	skipnc
  3667     073B  2F3D               	goto	u1051
  3668     073C  2F3E               	goto	u1050
  3669     073D                     u1051:
  3670     073D  2F2B               	goto	l1724
  3671     073E                     u1050:
  3672     073E                     l239:
  3673                           
  3674                           ;matrix_keypad.c: 78:     if (RB0 == 0)
  3675     073E  1283               	bcf	3,5	;RP0=0, select bank0
  3676     073F  1303               	bcf	3,6	;RP1=0, select bank0
  3677     0740  1806               	btfsc	6,0	;volatile
  3678     0741  2F43               	goto	u1061
  3679     0742  2F44               	goto	u1060
  3680     0743                     u1061:
  3681     0743  2F46               	goto	l240
  3682     0744                     u1060:
  3683     0744                     l1728:
  3684                           
  3685                           ;matrix_keypad.c: 79:     {;matrix_keypad.c: 80:         return 7;
  3686     0744  3007               	movlw	7
  3687     0745  2F82               	goto	l226
  3688     0746                     l240:	
  3689                           ;matrix_keypad.c: 82:     else if (RB1 == 0)
  3690                           
  3691     0746  1886               	btfsc	6,1	;volatile
  3692     0747  2F49               	goto	u1071
  3693     0748  2F4A               	goto	u1070
  3694     0749                     u1071:
  3695     0749  2F4C               	goto	l242
  3696     074A                     u1070:
  3697     074A                     l1734:
  3698                           
  3699                           ;matrix_keypad.c: 83:     {;matrix_keypad.c: 84:         return 8;
  3700     074A  3008               	movlw	8
  3701     074B  2F82               	goto	l226
  3702     074C                     l242:	
  3703                           ;matrix_keypad.c: 86:     else if (RB2 == 0)
  3704                           
  3705     074C  1906               	btfsc	6,2	;volatile
  3706     074D  2F4F               	goto	u1081
  3707     074E  2F50               	goto	u1080
  3708     074F                     u1081:
  3709     074F  2F52               	goto	l241
  3710     0750                     u1080:
  3711     0750                     l1740:
  3712                           
  3713                           ;matrix_keypad.c: 87:     {;matrix_keypad.c: 88:         return 9;
  3714     0750  3009               	movlw	9
  3715     0751  2F82               	goto	l226
  3716     0752                     l241:
  3717                           
  3718                           ;matrix_keypad.c: 91:     RD3 = 1;
  3719     0752  1588               	bsf	8,3	;volatile
  3720                           
  3721                           ;matrix_keypad.c: 92:     RD2 = 1;
  3722     0753  1508               	bsf	8,2	;volatile
  3723                           
  3724                           ;matrix_keypad.c: 93:     RD1 = 1;
  3725     0754  1488               	bsf	8,1	;volatile
  3726                           
  3727                           ;matrix_keypad.c: 94:     RD0 = 0;
  3728     0755  1008               	bcf	8,0	;volatile
  3729     0756                     l1744:
  3730                           
  3731                           ;matrix_keypad.c: 96:     for (i = 100; i > 0; i--);
  3732     0756  3064               	movlw	100
  3733     0757  00F2               	movwf	scan_keypad@i
  3734     0758  3000               	movlw	0
  3735     0759  00F3               	movwf	scan_keypad@i+1
  3736     075A                     l1750:
  3737     075A  30FF               	movlw	255
  3738     075B  07F2               	addwf	scan_keypad@i,f
  3739     075C  1803               	skipnc
  3740     075D  0AF3               	incf	scan_keypad@i+1,f
  3741     075E  30FF               	movlw	255
  3742     075F  07F3               	addwf	scan_keypad@i+1,f
  3743     0760                     l1752:
  3744     0760  0873               	movf	scan_keypad@i+1,w
  3745     0761  3A80               	xorlw	128
  3746     0762  00FF               	movwf	btemp+1
  3747     0763  3080               	movlw	128
  3748     0764  027F               	subwf	btemp+1,w
  3749     0765  1D03               	skipz
  3750     0766  2F69               	goto	u1095
  3751     0767  3001               	movlw	1
  3752     0768  0272               	subwf	scan_keypad@i,w
  3753     0769                     u1095:
  3754     0769  1803               	skipnc
  3755     076A  2F6C               	goto	u1091
  3756     076B  2F6D               	goto	u1090
  3757     076C                     u1091:
  3758     076C  2F5A               	goto	l1750
  3759     076D                     u1090:
  3760     076D                     l246:
  3761                           
  3762                           ;matrix_keypad.c: 98:     if (RB0 == 0)
  3763     076D  1283               	bcf	3,5	;RP0=0, select bank0
  3764     076E  1303               	bcf	3,6	;RP1=0, select bank0
  3765     076F  1806               	btfsc	6,0	;volatile
  3766     0770  2F72               	goto	u1101
  3767     0771  2F73               	goto	u1100
  3768     0772                     u1101:
  3769     0772  2F75               	goto	l247
  3770     0773                     u1100:
  3771     0773                     l1754:
  3772                           
  3773                           ;matrix_keypad.c: 99:     {;matrix_keypad.c: 100:         return '*';
  3774     0773  302A               	movlw	42
  3775     0774  2F82               	goto	l226
  3776     0775                     l247:	
  3777                           ;matrix_keypad.c: 102:     else if (RB1 == 0)
  3778                           
  3779     0775  1886               	btfsc	6,1	;volatile
  3780     0776  2F78               	goto	u1111
  3781     0777  2F79               	goto	u1110
  3782     0778                     u1111:
  3783     0778  2F7B               	goto	l249
  3784     0779                     u1110:
  3785     0779                     l1760:
  3786                           
  3787                           ;matrix_keypad.c: 103:     {;matrix_keypad.c: 104:         return 0;
  3788     0779  3000               	movlw	0
  3789     077A  2F82               	goto	l226
  3790     077B                     l249:	
  3791                           ;matrix_keypad.c: 106:     else if (RB2 == 0)
  3792                           
  3793     077B  1906               	btfsc	6,2	;volatile
  3794     077C  2F7E               	goto	u1121
  3795     077D  2F7F               	goto	u1120
  3796     077E                     u1121:
  3797     077E  2F81               	goto	l1770
  3798     077F                     u1120:
  3799     077F                     l1766:
  3800                           
  3801                           ;matrix_keypad.c: 107:     {;matrix_keypad.c: 108:         return '#';
  3802     077F  3023               	movlw	35
  3803     0780  2F82               	goto	l226
  3804     0781                     l1770:
  3805                           
  3806                           ;matrix_keypad.c: 111:     return 0xFF;
  3807     0781  30FF               	movlw	255
  3808     0782                     l226:
  3809     0782  0008               	return
  3810     0783                     __end_of_scan_keypad:
  3811                           
  3812                           	psect	text10
  3813     0FB3                     __ptext10:	
  3814 ;; *************** function _power_on_screen *****************
  3815 ;; Defined at:
  3816 ;;		line 212 in file "main.c"
  3817 ;; Parameters:    Size  Location     Type
  3818 ;;		None
  3819 ;; Auto vars:     Size  Location     Type
  3820 ;;  i               1   10[BANK0 ] unsigned char 
  3821 ;; Return value:  Size  Location     Type
  3822 ;;                  1    wreg      void 
  3823 ;; Registers used:
  3824 ;;		wreg, fsr0l, fsr0h, status,2, status,0, btemp+1, pclath, cstack
  3825 ;; Tracked objects:
  3826 ;;		On entry : 0/0
  3827 ;;		On exit  : 0/0
  3828 ;;		Unchanged: 0/0
  3829 ;; Data sizes:     COMMON   BANK0   BANK1   BANK3   BANK2
  3830 ;;      Params:         0       0       0       0       0
  3831 ;;      Locals:         0       1       0       0       0
  3832 ;;      Temps:          0       3       0       0       0
  3833 ;;      Totals:         0       4       0       0       0
  3834 ;;Total ram usage:        4 bytes
  3835 ;; Hardware stack levels used: 1
  3836 ;; Hardware stack levels required when called: 3
  3837 ;; This function calls:
  3838 ;;		_clcd_print
  3839 ;;		_clcd_putch
  3840 ;; This function is called by:
  3841 ;;		_main
  3842 ;; This function uses a non-reentrant model
  3843 ;;
  3844                           
  3845     0FB3                     _power_on_screen:	
  3846                           ;psect for function _power_on_screen
  3847                           
  3848     0FB3                     l2438:	
  3849                           ;incstack = 0
  3850                           ; Regs used in _power_on_screen: [wreg-fsr0h+status,2+status,0+btemp+1+pclath+cstack]
  3851                           
  3852                           
  3853                           ;main.c: 215: ;main.c: 216: void set_temp(unsigned char key, int reset_flag)
  3854     0FB3  1283               	bcf	3,5	;RP0=0, select bank0
  3855     0FB4  1303               	bcf	3,6	;RP1=0, select bank0
  3856     0FB5  01AA               	clrf	power_on_screen@i
  3857     0FB6                     l2444:
  3858                           
  3859                           ;main.c: 217: {;main.c: 218:     static unsigned char key_count , blink ,temp;
  3860     0FB6  082A               	movf	power_on_screen@i,w
  3861     0FB7  3E80               	addlw	128
  3862     0FB8  00A6               	movwf	clcd_putch@addr
  3863     0FB9  30FF               	movlw	255
  3864     0FBA  120A  158A  26AB  120A  158A  	fcall	_clcd_putch
  3865                           
  3866                           ;main.c: 219:     static int wait;
  3867     0FBF  1283               	bcf	3,5	;RP0=0, select bank0
  3868     0FC0  1303               	bcf	3,6	;RP1=0, select bank0
  3869     0FC1  082A               	movf	power_on_screen@i,w
  3870     0FC2  3ED0               	addlw	208
  3871     0FC3  00A6               	movwf	clcd_putch@addr
  3872     0FC4  30FF               	movlw	255
  3873     0FC5  120A  158A  26AB  120A  158A  	fcall	_clcd_putch
  3874     0FCA                     l2446:
  3875                           
  3876                           ;main.c: 220:     if(reset_flag == 0x10)
  3877     0FCA  3041               	movlw	65
  3878     0FCB  1283               	bcf	3,5	;RP0=0, select bank0
  3879     0FCC  1303               	bcf	3,6	;RP1=0, select bank0
  3880     0FCD  00A8               	movwf	??_power_on_screen+1
  3881     0FCE  30ED               	movlw	237
  3882     0FCF  00A7               	movwf	??_power_on_screen
  3883     0FD0                     u2437:
  3884     0FD0  0BA7               	decfsz	??_power_on_screen,f
  3885     0FD1  2FD0               	goto	u2437
  3886     0FD2  0BA8               	decfsz	??_power_on_screen+1,f
  3887     0FD3  2FD0               	goto	u2437
  3888     0FD4  2FD5               	nop2
  3889     0FD5                     l2448:
  3890                           
  3891                           ;main.c: 221:     {
  3892     0FD5  3001               	movlw	1
  3893     0FD6  00FF               	movwf	btemp+1
  3894     0FD7  087F               	movf	btemp+1,w
  3895     0FD8  1283               	bcf	3,5	;RP0=0, select bank0
  3896     0FD9  1303               	bcf	3,6	;RP1=0, select bank0
  3897     0FDA  07AA               	addwf	power_on_screen@i,f
  3898     0FDB                     l2450:
  3899     0FDB  3010               	movlw	16
  3900     0FDC  022A               	subwf	power_on_screen@i,w
  3901     0FDD  1C03               	skipc
  3902     0FDE  2FE0               	goto	u1981
  3903     0FDF  2FE1               	goto	u1980
  3904     0FE0                     u1981:
  3905     0FE0  2FB6               	goto	l2444
  3906     0FE1                     u1980:
  3907     0FE1                     l2452:
  3908                           
  3909                           ;main.c: 223:         wait =0;
  3910     0FE1  30C0               	movlw	192
  3911     0FE2  00F6               	movwf	clcd_print@addr
  3912     0FE3  3001               	movlw	(low ((STR_11-__stringbase)| (0+32768)))& (0+255)
  3913     0FE4  120A  158A  2720  120A  158A  	fcall	_clcd_print
  3914                           
  3915                           ;main.c: 224:         blink=0;
  3916     0FE9  3090               	movlw	144
  3917     0FEA  00F6               	movwf	clcd_print@addr
  3918     0FEB  3023               	movlw	(low ((STR_12-__stringbase)| (0+32768)))& (0+255)
  3919     0FEC  120A  158A  2720  120A  158A  	fcall	_clcd_print
  3920     0FF1                     l2454:
  3921                           
  3922                           ;main.c: 225:         temp=0;
  3923     0FF1  304D               	movlw	77
  3924     0FF2  1283               	bcf	3,5	;RP0=0, select bank0
  3925     0FF3  1303               	bcf	3,6	;RP1=0, select bank0
  3926     0FF4  00A9               	movwf	??_power_on_screen+2
  3927     0FF5  3019               	movlw	25
  3928     0FF6  00A8               	movwf	??_power_on_screen+1
  3929     0FF7  304F               	movlw	79
  3930     0FF8  00A7               	movwf	??_power_on_screen
  3931     0FF9                     u2447:
  3932     0FF9  0BA7               	decfsz	??_power_on_screen,f
  3933     0FFA  2FF9               	goto	u2447
  3934     0FFB  0BA8               	decfsz	??_power_on_screen+1,f
  3935     0FFC  2FF9               	goto	u2447
  3936     0FFD  0BA9               	decfsz	??_power_on_screen+2,f
  3937     0FFE  2FF9               	goto	u2447
  3938     0FFF                     l111:
  3939     0FFF  0008               	return
  3940     1000                     __end_of_power_on_screen:
  3941                           
  3942                           	psect	text11
  3943     0EAB                     __ptext11:	
  3944 ;; *************** function _clcd_putch *****************
  3945 ;; Defined at:
  3946 ;;		line 56 in file "clcd.c"
  3947 ;; Parameters:    Size  Location     Type
  3948 ;;  data            1    wreg     const unsigned char 
  3949 ;;  addr            1    6[BANK0 ] unsigned char 
  3950 ;; Auto vars:     Size  Location     Type
  3951 ;;  data            1   10[COMMON] const unsigned char 
  3952 ;; Return value:  Size  Location     Type
  3953 ;;                  1    wreg      void 
  3954 ;; Registers used:
  3955 ;;		wreg, status,2, status,0, pclath, cstack
  3956 ;; Tracked objects:
  3957 ;;		On entry : 0/0
  3958 ;;		On exit  : 0/0
  3959 ;;		Unchanged: 0/0
  3960 ;; Data sizes:     COMMON   BANK0   BANK1   BANK3   BANK2
  3961 ;;      Params:         0       1       0       0       0
  3962 ;;      Locals:         1       0       0       0       0
  3963 ;;      Temps:          0       0       0       0       0
  3964 ;;      Totals:         1       1       0       0       0
  3965 ;;Total ram usage:        2 bytes
  3966 ;; Hardware stack levels used: 1
  3967 ;; Hardware stack levels required when called: 2
  3968 ;; This function calls:
  3969 ;;		_clcd_write
  3970 ;; This function is called by:
  3971 ;;		_time_display_screen
  3972 ;;		_power_on_screen
  3973 ;;		_set_temp
  3974 ;;		_set_time
  3975 ;; This function uses a non-reentrant model
  3976 ;;
  3977                           
  3978     0EAB                     _clcd_putch:	
  3979                           ;psect for function _clcd_putch
  3980                           
  3981                           
  3982                           ;incstack = 0
  3983                           ; Regs used in _clcd_putch: [wreg+status,2+status,0+pclath+cstack]
  3984                           ;clcd_putch@data stored from wreg
  3985     0EAB  00FA               	movwf	clcd_putch@data
  3986     0EAC                     l2384:
  3987                           
  3988                           ;clcd.c: 56: void clcd_putch(const char data, unsigned char addr);clcd.c: 57: {;clcd.c: 
      +                          58:     clcd_write(addr, 0);
  3989     0EAC  01F2               	clrf	clcd_write@mode
  3990     0EAD  1283               	bcf	3,5	;RP0=0, select bank0
  3991     0EAE  1303               	bcf	3,6	;RP1=0, select bank0
  3992     0EAF  0826               	movf	clcd_putch@addr,w
  3993     0EB0  120A  158A  277D  120A  158A  	fcall	_clcd_write
  3994                           
  3995                           ;clcd.c: 59:     clcd_write(data, 1);
  3996     0EB5  01F2               	clrf	clcd_write@mode
  3997     0EB6  0AF2               	incf	clcd_write@mode,f
  3998     0EB7  087A               	movf	clcd_putch@data,w
  3999     0EB8  120A  158A  277D  120A  158A  	fcall	_clcd_write
  4000     0EBD                     l190:
  4001     0EBD  0008               	return
  4002     0EBE                     __end_of_clcd_putch:
  4003                           
  4004                           	psect	text12
  4005     0EDC                     __ptext12:	
  4006 ;; *************** function _menu_display_screen *****************
  4007 ;; Defined at:
  4008 ;;		line 202 in file "main.c"
  4009 ;; Parameters:    Size  Location     Type
  4010 ;;		None
  4011 ;; Auto vars:     Size  Location     Type
  4012 ;;		None
  4013 ;; Return value:  Size  Location     Type
  4014 ;;                  1    wreg      void 
  4015 ;; Registers used:
  4016 ;;		wreg, fsr0l, fsr0h, status,2, status,0, btemp+1, pclath, cstack
  4017 ;; Tracked objects:
  4018 ;;		On entry : 0/0
  4019 ;;		On exit  : 0/0
  4020 ;;		Unchanged: 0/0
  4021 ;; Data sizes:     COMMON   BANK0   BANK1   BANK3   BANK2
  4022 ;;      Params:         0       0       0       0       0
  4023 ;;      Locals:         0       0       0       0       0
  4024 ;;      Temps:          0       0       0       0       0
  4025 ;;      Totals:         0       0       0       0       0
  4026 ;;Total ram usage:        0 bytes
  4027 ;; Hardware stack levels used: 1
  4028 ;; Hardware stack levels required when called: 3
  4029 ;; This function calls:
  4030 ;;		_clcd_print
  4031 ;; This function is called by:
  4032 ;;		_main
  4033 ;; This function uses a non-reentrant model
  4034 ;;
  4035                           
  4036     0EDC                     _menu_display_screen:	
  4037                           ;psect for function _menu_display_screen
  4038                           
  4039     0EDC                     l2456:	
  4040                           ;incstack = 0
  4041                           ; Regs used in _menu_display_screen: [wreg-fsr0h+status,2+status,0+btemp+1+pclath+cstack
      +                          ]
  4042                           
  4043                           
  4044                           ;main.c: 204:     for(i=0;i<16;i++)
  4045     0EDC  3080               	movlw	128
  4046     0EDD  00F6               	movwf	clcd_print@addr
  4047     0EDE  30CF               	movlw	(low ((STR_7-__stringbase)| (0+32768)))& (0+255)
  4048     0EDF  120A  158A  2720  120A  158A  	fcall	_clcd_print
  4049                           
  4050                           ;main.c: 205:     {
  4051     0EE4  30C0               	movlw	192
  4052     0EE5  00F6               	movwf	clcd_print@addr
  4053     0EE6  30C7               	movlw	(low ((STR_8-__stringbase)| (0+32768)))& (0+255)
  4054     0EE7  120A  158A  2720  120A  158A  	fcall	_clcd_print
  4055                           
  4056                           ;main.c: 206:     clcd_putch(0XFF, (0x80 + i));
  4057     0EEC  3090               	movlw	144
  4058     0EED  00F6               	movwf	clcd_print@addr
  4059     0EEE  3092               	movlw	(low ((STR_9-__stringbase)| (0+32768)))& (0+255)
  4060     0EEF  120A  158A  2720  120A  158A  	fcall	_clcd_print
  4061                           
  4062                           ;main.c: 207:     clcd_putch(0XFF, (0xD0 + i));
  4063     0EF4  30D0               	movlw	208
  4064     0EF5  00F6               	movwf	clcd_print@addr
  4065     0EF6  30DF               	movlw	(low ((STR_10-__stringbase)| (0+32768)))& (0+255)
  4066     0EF7  120A  158A  2720  120A  158A  	fcall	_clcd_print
  4067     0EFC                     l106:
  4068     0EFC  0008               	return
  4069     0EFD                     __end_of_menu_display_screen:
  4070                           
  4071                           	psect	text13
  4072     0F20                     __ptext13:	
  4073 ;; *************** function _clcd_print *****************
  4074 ;; Defined at:
  4075 ;;		line 62 in file "clcd.c"
  4076 ;; Parameters:    Size  Location     Type
  4077 ;;  str             1    wreg     PTR const unsigned char 
  4078 ;;		 -> STR_23(3), STR_22(3), STR_21(17), STR_20(7), 
  4079 ;;		 -> STR_19(17), STR_18(4), STR_17(12), STR_16(15), 
  4080 ;;		 -> STR_15(17), STR_14(9), STR_13(15), STR_12(17), 
  4081 ;;		 -> STR_11(17), STR_10(8), STR_9(13), STR_8(8), 
  4082 ;;		 -> STR_7(8), STR_6(14), STR_5(8), STR_4(9), 
  4083 ;;		 -> STR_3(16), STR_2(10), STR_1(17), 
  4084 ;;  addr            1    6[COMMON] unsigned char 
  4085 ;; Auto vars:     Size  Location     Type
  4086 ;;  str             1    7[COMMON] PTR const unsigned char 
  4087 ;;		 -> STR_23(3), STR_22(3), STR_21(17), STR_20(7), 
  4088 ;;		 -> STR_19(17), STR_18(4), STR_17(12), STR_16(15), 
  4089 ;;		 -> STR_15(17), STR_14(9), STR_13(15), STR_12(17), 
  4090 ;;		 -> STR_11(17), STR_10(8), STR_9(13), STR_8(8), 
  4091 ;;		 -> STR_7(8), STR_6(14), STR_5(8), STR_4(9), 
  4092 ;;		 -> STR_3(16), STR_2(10), STR_1(17), 
  4093 ;; Return value:  Size  Location     Type
  4094 ;;                  1    wreg      void 
  4095 ;; Registers used:
  4096 ;;		wreg, fsr0l, fsr0h, status,2, status,0, btemp+1, pclath, cstack
  4097 ;; Tracked objects:
  4098 ;;		On entry : 0/0
  4099 ;;		On exit  : 0/0
  4100 ;;		Unchanged: 0/0
  4101 ;; Data sizes:     COMMON   BANK0   BANK1   BANK3   BANK2
  4102 ;;      Params:         1       0       0       0       0
  4103 ;;      Locals:         1       0       0       0       0
  4104 ;;      Temps:          0       0       0       0       0
  4105 ;;      Totals:         2       0       0       0       0
  4106 ;;Total ram usage:        2 bytes
  4107 ;; Hardware stack levels used: 1
  4108 ;; Hardware stack levels required when called: 2
  4109 ;; This function calls:
  4110 ;;		_clcd_write
  4111 ;; This function is called by:
  4112 ;;		_main
  4113 ;;		_time_display_screen
  4114 ;;		_menu_display_screen
  4115 ;;		_power_on_screen
  4116 ;;		_set_temp
  4117 ;;		_set_time
  4118 ;; This function uses a non-reentrant model
  4119 ;;
  4120                           
  4121     0F20                     _clcd_print:	
  4122                           ;psect for function _clcd_print
  4123                           
  4124                           
  4125                           ;incstack = 0
  4126                           ; Regs used in _clcd_print: [wreg-fsr0h+status,2+status,0+btemp+1+pclath+cstack]
  4127                           ;clcd_print@str stored from wreg
  4128     0F20  00F7               	movwf	clcd_print@str
  4129     0F21                     l2376:
  4130                           
  4131                           ;clcd.c: 62: void clcd_print(const char *str, unsigned char addr);clcd.c: 63: {;clcd.c: 
      +                          64:     clcd_write(addr, 0);
  4132     0F21  01F2               	clrf	clcd_write@mode
  4133     0F22  0876               	movf	clcd_print@addr,w
  4134     0F23  120A  158A  277D  120A  158A  	fcall	_clcd_write
  4135                           
  4136                           ;clcd.c: 66:     while (*str != '\0')
  4137     0F28  2F3B               	goto	l2382
  4138     0F29                     l2378:
  4139                           
  4140                           ;clcd.c: 67:     {;clcd.c: 68:         clcd_write(*str, 1);
  4141     0F29  01F2               	clrf	clcd_write@mode
  4142     0F2A  0AF2               	incf	clcd_write@mode,f
  4143     0F2B  0877               	movf	clcd_print@str,w
  4144     0F2C  0084               	movwf	4
  4145     0F2D  120A  118A  2500  120A  158A  	fcall	stringdir
  4146     0F32  120A  158A  277D  120A  158A  	fcall	_clcd_write
  4147     0F37                     l2380:
  4148                           
  4149                           ;clcd.c: 69:         str++;
  4150     0F37  3001               	movlw	1
  4151     0F38  00FF               	movwf	btemp+1
  4152     0F39  087F               	movf	btemp+1,w
  4153     0F3A  07F7               	addwf	clcd_print@str,f
  4154     0F3B                     l2382:
  4155                           
  4156                           ;clcd.c: 66:     while (*str != '\0')
  4157     0F3B  0877               	movf	clcd_print@str,w
  4158     0F3C  0084               	movwf	4
  4159     0F3D  120A  118A  2500  120A  158A  	fcall	stringdir
  4160     0F42  3A00               	xorlw	0
  4161     0F43  1D03               	skipz
  4162     0F44  2F46               	goto	u1881
  4163     0F45  2F47               	goto	u1880
  4164     0F46                     u1881:
  4165     0F46  2F29               	goto	l2378
  4166     0F47                     u1880:
  4167     0F47                     l196:
  4168     0F47  0008               	return
  4169     0F48                     __end_of_clcd_print:
  4170                           
  4171                           	psect	text14
  4172     0EBE                     __ptext14:	
  4173 ;; *************** function _init_config *****************
  4174 ;; Defined at:
  4175 ;;		line 15 in file "main.c"
  4176 ;; Parameters:    Size  Location     Type
  4177 ;;		None
  4178 ;; Auto vars:     Size  Location     Type
  4179 ;;		None
  4180 ;; Return value:  Size  Location     Type
  4181 ;;                  1    wreg      void 
  4182 ;; Registers used:
  4183 ;;		wreg, status,2, status,0, pclath, cstack
  4184 ;; Tracked objects:
  4185 ;;		On entry : 0/0
  4186 ;;		On exit  : 0/0
  4187 ;;		Unchanged: 0/0
  4188 ;; Data sizes:     COMMON   BANK0   BANK1   BANK3   BANK2
  4189 ;;      Params:         0       0       0       0       0
  4190 ;;      Locals:         0       0       0       0       0
  4191 ;;      Temps:          0       0       0       0       0
  4192 ;;      Totals:         0       0       0       0       0
  4193 ;;Total ram usage:        0 bytes
  4194 ;; Hardware stack levels used: 1
  4195 ;; Hardware stack levels required when called: 4
  4196 ;; This function calls:
  4197 ;;		_init_clcd
  4198 ;;		_init_matrix_keypad
  4199 ;;		_init_timer2
  4200 ;; This function is called by:
  4201 ;;		_main
  4202 ;; This function uses a non-reentrant model
  4203 ;;
  4204                           
  4205     0EBE                     _init_config:	
  4206                           ;psect for function _init_config
  4207                           
  4208     0EBE                     l2424:	
  4209                           ;incstack = 0
  4210                           ; Regs used in _init_config: [wreg+status,2+status,0+pclath+cstack]
  4211                           
  4212                           
  4213                           ;main.c: 17:     GIE =1;
  4214     0EBE  120A  158A  267F  120A  158A  	fcall	_init_clcd
  4215                           
  4216                           ;main.c: 20:     RC1 = 0;
  4217     0EC3  120A  158A  268A  120A  158A  	fcall	_init_matrix_keypad
  4218     0EC8                     l2426:
  4219                           
  4220                           ;main.c: 23: 
  4221     0EC8  1683               	bsf	3,5	;RP0=1, select bank1
  4222     0EC9  1303               	bcf	3,6	;RP1=0, select bank1
  4223     0ECA  1107               	bcf	7,2	;volatile
  4224     0ECB                     l2428:
  4225                           
  4226                           ;main.c: 24: void main(void) {
  4227     0ECB  1283               	bcf	3,5	;RP0=0, select bank0
  4228     0ECC  1303               	bcf	3,6	;RP1=0, select bank0
  4229     0ECD  1107               	bcf	7,2	;volatile
  4230                           
  4231                           ;main.c: 27: 
  4232     0ECE  120A  118A  24F3  120A  158A  	fcall	_init_timer2
  4233     0ED3                     l2430:
  4234                           
  4235                           ;main.c: 28: 
  4236     0ED3  170B               	bsf	11,6	;volatile
  4237     0ED4                     l2432:
  4238                           
  4239                           ;main.c: 29:     int reset_flag ;
  4240     0ED4  178B               	bsf	11,7	;volatile
  4241     0ED5                     l2434:
  4242                           
  4243                           ;main.c: 31:     while (1)
  4244     0ED5  1683               	bsf	3,5	;RP0=1, select bank1
  4245     0ED6  1303               	bcf	3,6	;RP1=0, select bank1
  4246     0ED7  1087               	bcf	7,1	;volatile
  4247     0ED8                     l2436:
  4248                           
  4249                           ;main.c: 32:     {
  4250     0ED8  1283               	bcf	3,5	;RP0=0, select bank0
  4251     0ED9  1303               	bcf	3,6	;RP1=0, select bank0
  4252     0EDA  1087               	bcf	7,1	;volatile
  4253     0EDB                     l53:
  4254     0EDB  0008               	return
  4255     0EDC                     __end_of_init_config:
  4256                           
  4257                           	psect	text15
  4258     04F3                     __ptext15:	
  4259 ;; *************** function _init_timer2 *****************
  4260 ;; Defined at:
  4261 ;;		line 5 in file "timers.c"
  4262 ;; Parameters:    Size  Location     Type
  4263 ;;		None
  4264 ;; Auto vars:     Size  Location     Type
  4265 ;;		None
  4266 ;; Return value:  Size  Location     Type
  4267 ;;                  1    wreg      void 
  4268 ;; Registers used:
  4269 ;;		wreg
  4270 ;; Tracked objects:
  4271 ;;		On entry : 0/0
  4272 ;;		On exit  : 0/0
  4273 ;;		Unchanged: 0/0
  4274 ;; Data sizes:     COMMON   BANK0   BANK1   BANK3   BANK2
  4275 ;;      Params:         0       0       0       0       0
  4276 ;;      Locals:         0       0       0       0       0
  4277 ;;      Temps:          0       0       0       0       0
  4278 ;;      Totals:         0       0       0       0       0
  4279 ;;Total ram usage:        0 bytes
  4280 ;; Hardware stack levels used: 1
  4281 ;; Hardware stack levels required when called: 1
  4282 ;; This function calls:
  4283 ;;		Nothing
  4284 ;; This function is called by:
  4285 ;;		_init_config
  4286 ;; This function uses a non-reentrant model
  4287 ;;
  4288                           
  4289     04F3                     _init_timer2:	
  4290                           ;psect for function _init_timer2
  4291                           
  4292     04F3                     l1648:	
  4293                           ;incstack = 0
  4294                           ; Regs used in _init_timer2: [wreg]
  4295                           
  4296                           
  4297                           ;timers.c: 8:     T2CKPS0 = 1;
  4298     04F3  1283               	bcf	3,5	;RP0=0, select bank0
  4299     04F4  1303               	bcf	3,6	;RP1=0, select bank0
  4300     04F5  1412               	bsf	18,0	;volatile
  4301                           
  4302                           ;timers.c: 9:     T2CKPS1 = 1;
  4303     04F6  1492               	bsf	18,1	;volatile
  4304     04F7                     l1650:
  4305                           
  4306                           ;timers.c: 12:     PR2 = 250;
  4307     04F7  30FA               	movlw	250
  4308     04F8  1683               	bsf	3,5	;RP0=1, select bank1
  4309     04F9  1303               	bcf	3,6	;RP1=0, select bank1
  4310     04FA  0092               	movwf	18	;volatile
  4311     04FB                     l1652:
  4312                           
  4313                           ;timers.c: 15:     TMR2IE = 1;
  4314     04FB  148C               	bsf	12,1	;volatile
  4315     04FC                     l1654:
  4316                           
  4317                           ;timers.c: 18:     TMR2ON = 0;
  4318     04FC  1283               	bcf	3,5	;RP0=0, select bank0
  4319     04FD  1303               	bcf	3,6	;RP1=0, select bank0
  4320     04FE  1112               	bcf	18,2	;volatile
  4321     04FF                     l274:
  4322     04FF  0008               	return
  4323     0500                     __end_of_init_timer2:
  4324                           
  4325                           	psect	text16
  4326     0E8A                     __ptext16:	
  4327 ;; *************** function _init_matrix_keypad *****************
  4328 ;; Defined at:
  4329 ;;		line 4 in file "matrix_keypad.c"
  4330 ;; Parameters:    Size  Location     Type
  4331 ;;		None
  4332 ;; Auto vars:     Size  Location     Type
  4333 ;;		None
  4334 ;; Return value:  Size  Location     Type
  4335 ;;                  1    wreg      void 
  4336 ;; Registers used:
  4337 ;;		wreg, status,2
  4338 ;; Tracked objects:
  4339 ;;		On entry : 0/0
  4340 ;;		On exit  : 0/0
  4341 ;;		Unchanged: 0/0
  4342 ;; Data sizes:     COMMON   BANK0   BANK1   BANK3   BANK2
  4343 ;;      Params:         0       0       0       0       0
  4344 ;;      Locals:         0       0       0       0       0
  4345 ;;      Temps:          0       0       0       0       0
  4346 ;;      Totals:         0       0       0       0       0
  4347 ;;Total ram usage:        0 bytes
  4348 ;; Hardware stack levels used: 1
  4349 ;; Hardware stack levels required when called: 1
  4350 ;; This function calls:
  4351 ;;		Nothing
  4352 ;; This function is called by:
  4353 ;;		_init_config
  4354 ;; This function uses a non-reentrant model
  4355 ;;
  4356                           
  4357     0E8A                     _init_matrix_keypad:	
  4358                           ;psect for function _init_matrix_keypad
  4359                           
  4360     0E8A                     l1636:	
  4361                           ;incstack = 0
  4362                           ; Regs used in _init_matrix_keypad: [wreg+status,2]
  4363                           
  4364                           
  4365                           ;matrix_keypad.c: 8:     TRISB = TRISB | 0x07;
  4366     0E8A  1683               	bsf	3,5	;RP0=1, select bank1
  4367     0E8B  1303               	bcf	3,6	;RP1=0, select bank1
  4368     0E8C  0806               	movf	6,w	;volatile
  4369     0E8D  3807               	iorlw	7
  4370     0E8E  0086               	movwf	6	;volatile
  4371                           
  4372                           ;matrix_keypad.c: 12:     TRISD = TRISD & 0xF0;
  4373     0E8F  0808               	movf	8,w	;volatile
  4374     0E90  39F0               	andlw	240
  4375     0E91  0088               	movwf	8	;volatile
  4376     0E92                     l1638:
  4377                           
  4378                           ;matrix_keypad.c: 15:     nRBPU = 0;
  4379     0E92  1381               	bcf	1,7	;volatile
  4380     0E93                     l1640:
  4381                           
  4382                           ;matrix_keypad.c: 18:     RD3 = 1;
  4383     0E93  1283               	bcf	3,5	;RP0=0, select bank0
  4384     0E94  1303               	bcf	3,6	;RP1=0, select bank0
  4385     0E95  1588               	bsf	8,3	;volatile
  4386     0E96                     l1642:
  4387                           
  4388                           ;matrix_keypad.c: 19:     RD2 = 1;
  4389     0E96  1508               	bsf	8,2	;volatile
  4390     0E97                     l1644:
  4391                           
  4392                           ;matrix_keypad.c: 20:     RD1 = 1;
  4393     0E97  1488               	bsf	8,1	;volatile
  4394     0E98                     l1646:
  4395                           
  4396                           ;matrix_keypad.c: 21:     RD0 = 1;
  4397     0E98  1408               	bsf	8,0	;volatile
  4398     0E99                     l219:
  4399     0E99  0008               	return
  4400     0E9A                     __end_of_init_matrix_keypad:
  4401                           
  4402                           	psect	text17
  4403     0E7F                     __ptext17:	
  4404 ;; *************** function _init_clcd *****************
  4405 ;; Defined at:
  4406 ;;		line 44 in file "clcd.c"
  4407 ;; Parameters:    Size  Location     Type
  4408 ;;		None
  4409 ;; Auto vars:     Size  Location     Type
  4410 ;;		None
  4411 ;; Return value:  Size  Location     Type
  4412 ;;                  1    wreg      void 
  4413 ;; Registers used:
  4414 ;;		wreg, status,2, status,0, pclath, cstack
  4415 ;; Tracked objects:
  4416 ;;		On entry : 0/0
  4417 ;;		On exit  : 0/0
  4418 ;;		Unchanged: 0/0
  4419 ;; Data sizes:     COMMON   BANK0   BANK1   BANK3   BANK2
  4420 ;;      Params:         0       0       0       0       0
  4421 ;;      Locals:         0       0       0       0       0
  4422 ;;      Temps:          0       0       0       0       0
  4423 ;;      Totals:         0       0       0       0       0
  4424 ;;Total ram usage:        0 bytes
  4425 ;; Hardware stack levels used: 1
  4426 ;; Hardware stack levels required when called: 3
  4427 ;; This function calls:
  4428 ;;		_init_display_controller
  4429 ;; This function is called by:
  4430 ;;		_init_config
  4431 ;; This function uses a non-reentrant model
  4432 ;;
  4433                           
  4434     0E7F                     _init_clcd:	
  4435                           ;psect for function _init_clcd
  4436                           
  4437     0E7F                     l2364:	
  4438                           ;incstack = 0
  4439                           ; Regs used in _init_clcd: [wreg+status,2+status,0+pclath+cstack]
  4440                           
  4441                           
  4442                           ;clcd.c: 47:     TRISD = 0x00;
  4443     0E7F  1683               	bsf	3,5	;RP0=1, select bank1
  4444     0E80  1303               	bcf	3,6	;RP1=0, select bank1
  4445     0E81  0188               	clrf	8	;volatile
  4446     0E82                     l2366:
  4447                           
  4448                           ;clcd.c: 50:     TRISE2 = 0;
  4449     0E82  1109               	bcf	9,2	;volatile
  4450     0E83                     l2368:
  4451                           
  4452                           ;clcd.c: 51:     TRISE1 = 0;
  4453     0E83  1089               	bcf	9,1	;volatile
  4454     0E84                     l2370:
  4455                           
  4456                           ;clcd.c: 53:     init_display_controller();
  4457     0E84  120A  118A  2435  120A  158A  	fcall	_init_display_controller
  4458     0E89                     l187:
  4459     0E89  0008               	return
  4460     0E8A                     __end_of_init_clcd:
  4461                           
  4462                           	psect	text18
  4463     0435                     __ptext18:	
  4464 ;; *************** function _init_display_controller *****************
  4465 ;; Defined at:
  4466 ;;		line 21 in file "clcd.c"
  4467 ;; Parameters:    Size  Location     Type
  4468 ;;		None
  4469 ;; Auto vars:     Size  Location     Type
  4470 ;;		None
  4471 ;; Return value:  Size  Location     Type
  4472 ;;                  1    wreg      void 
  4473 ;; Registers used:
  4474 ;;		wreg, status,2, status,0, pclath, cstack
  4475 ;; Tracked objects:
  4476 ;;		On entry : 0/0
  4477 ;;		On exit  : 0/0
  4478 ;;		Unchanged: 0/0
  4479 ;; Data sizes:     COMMON   BANK0   BANK1   BANK3   BANK2
  4480 ;;      Params:         0       0       0       0       0
  4481 ;;      Locals:         0       0       0       0       0
  4482 ;;      Temps:          2       0       0       0       0
  4483 ;;      Totals:         2       0       0       0       0
  4484 ;;Total ram usage:        2 bytes
  4485 ;; Hardware stack levels used: 1
  4486 ;; Hardware stack levels required when called: 2
  4487 ;; This function calls:
  4488 ;;		_clcd_write
  4489 ;; This function is called by:
  4490 ;;		_init_clcd
  4491 ;; This function uses a non-reentrant model
  4492 ;;
  4493                           
  4494     0435                     _init_display_controller:	
  4495                           ;psect for function _init_display_controller
  4496                           
  4497     0435                     l2340:	
  4498                           ;incstack = 0
  4499                           ; Regs used in _init_display_controller: [wreg+status,2+status,0+pclath+cstack]
  4500                           
  4501                           
  4502                           ;clcd.c: 24:     _delay((unsigned long)((30)*(20000000/4000.0)));
  4503     0435  30C3               	movlw	195
  4504     0436  00F7               	movwf	??_init_display_controller+1
  4505     0437  30CD               	movlw	205
  4506     0438  00F6               	movwf	??_init_display_controller
  4507     0439                     u2457:
  4508     0439  0BF6               	decfsz	??_init_display_controller,f
  4509     043A  2C39               	goto	u2457
  4510     043B  0BF7               	decfsz	??_init_display_controller+1,f
  4511     043C  2C39               	goto	u2457
  4512     043D                     l2342:
  4513                           
  4514                           ;clcd.c: 27:     clcd_write(0x33, 0);
  4515     043D  01F2               	clrf	clcd_write@mode
  4516     043E  3033               	movlw	51
  4517     043F  120A  158A  277D  120A  118A  	fcall	_clcd_write
  4518     0444                     l2344:
  4519                           
  4520                           ;clcd.c: 28:     _delay((unsigned long)((4100)*(20000000/4000000.0)));
  4521     0444  301B               	movlw	27
  4522     0445  00F7               	movwf	??_init_display_controller+1
  4523     0446  309E               	movlw	158
  4524     0447  00F6               	movwf	??_init_display_controller
  4525     0448                     u2467:
  4526     0448  0BF6               	decfsz	??_init_display_controller,f
  4527     0449  2C48               	goto	u2467
  4528     044A  0BF7               	decfsz	??_init_display_controller+1,f
  4529     044B  2C48               	goto	u2467
  4530     044C  0000               	nop
  4531                           
  4532                           ;clcd.c: 29:     clcd_write(0x33, 0);
  4533     044D  01F2               	clrf	clcd_write@mode
  4534     044E  3033               	movlw	51
  4535     044F  120A  158A  277D  120A  118A  	fcall	_clcd_write
  4536     0454                     l2346:
  4537                           
  4538                           ;clcd.c: 30:     _delay((unsigned long)((100)*(20000000/4000000.0)));
  4539     0454  30A6               	movlw	166
  4540     0455  00F6               	movwf	??_init_display_controller
  4541     0456                     u2477:
  4542     0456  0BF6               	decfsz	??_init_display_controller,f
  4543     0457  2C56               	goto	u2477
  4544     0458  0000               	nop
  4545     0459                     l2348:
  4546                           
  4547                           ;clcd.c: 31:     clcd_write(0x33, 0);
  4548     0459  01F2               	clrf	clcd_write@mode
  4549     045A  3033               	movlw	51
  4550     045B  120A  158A  277D  120A  118A  	fcall	_clcd_write
  4551     0460                     l2350:
  4552                           
  4553                           ;clcd.c: 32:     _delay((unsigned long)((1)*(20000000/4000000.0)));
  4554     0460  2C61               	nop2	;2 cycle nop
  4555     0461  2C62               	nop2	;2 cycle nop
  4556     0462  0000               	nop
  4557     0463                     l2352:
  4558                           
  4559                           ;clcd.c: 34:     clcd_write(0x02, 0);
  4560     0463  01F2               	clrf	clcd_write@mode
  4561     0464  3002               	movlw	2
  4562     0465  120A  158A  277D  120A  118A  	fcall	_clcd_write
  4563     046A                     l2354:
  4564                           
  4565                           ;clcd.c: 35:     _delay((unsigned long)((100)*(20000000/4000000.0)));
  4566     046A  30A6               	movlw	166
  4567     046B  00F6               	movwf	??_init_display_controller
  4568     046C                     u2487:
  4569     046C  0BF6               	decfsz	??_init_display_controller,f
  4570     046D  2C6C               	goto	u2487
  4571     046E  0000               	nop
  4572                           
  4573                           ;clcd.c: 36:     clcd_write(0x28, 0);
  4574     046F  01F2               	clrf	clcd_write@mode
  4575     0470  3028               	movlw	40
  4576     0471  120A  158A  277D  120A  118A  	fcall	_clcd_write
  4577     0476                     l2356:
  4578                           
  4579                           ;clcd.c: 37:     _delay((unsigned long)((100)*(20000000/4000000.0)));
  4580     0476  30A6               	movlw	166
  4581     0477  00F6               	movwf	??_init_display_controller
  4582     0478                     u2497:
  4583     0478  0BF6               	decfsz	??_init_display_controller,f
  4584     0479  2C78               	goto	u2497
  4585     047A  0000               	nop
  4586     047B                     l2358:
  4587                           
  4588                           ;clcd.c: 38:     clcd_write(0x01, 0);
  4589     047B  01F2               	clrf	clcd_write@mode
  4590     047C  3001               	movlw	1
  4591     047D  120A  158A  277D  120A  118A  	fcall	_clcd_write
  4592                           
  4593                           ;clcd.c: 39:     _delay((unsigned long)((500)*(20000000/4000000.0)));
  4594     0482  3004               	movlw	4
  4595     0483  00F7               	movwf	??_init_display_controller+1
  4596     0484  303D               	movlw	61
  4597     0485  00F6               	movwf	??_init_display_controller
  4598     0486                     u2507:
  4599     0486  0BF6               	decfsz	??_init_display_controller,f
  4600     0487  2C86               	goto	u2507
  4601     0488  0BF7               	decfsz	??_init_display_controller+1,f
  4602     0489  2C86               	goto	u2507
  4603     048A  2C8B               	nop2
  4604     048B                     l2360:
  4605                           
  4606                           ;clcd.c: 40:     clcd_write(0x0C, 0);
  4607     048B  01F2               	clrf	clcd_write@mode
  4608     048C  300C               	movlw	12
  4609     048D  120A  158A  277D  120A  118A  	fcall	_clcd_write
  4610     0492                     l2362:
  4611                           
  4612                           ;clcd.c: 41:     _delay((unsigned long)((100)*(20000000/4000000.0)));
  4613     0492  30A6               	movlw	166
  4614     0493  00F6               	movwf	??_init_display_controller
  4615     0494                     u2517:
  4616     0494  0BF6               	decfsz	??_init_display_controller,f
  4617     0495  2C94               	goto	u2517
  4618     0496  0000               	nop
  4619     0497                     l184:
  4620     0497  0008               	return
  4621     0498                     __end_of_init_display_controller:
  4622                           
  4623                           	psect	text19
  4624     0F7D                     __ptext19:	
  4625 ;; *************** function _clcd_write *****************
  4626 ;; Defined at:
  4627 ;;		line 4 in file "clcd.c"
  4628 ;; Parameters:    Size  Location     Type
  4629 ;;  byte            1    wreg     unsigned char 
  4630 ;;  mode            1    2[COMMON] unsigned char 
  4631 ;; Auto vars:     Size  Location     Type
  4632 ;;  byte            1    5[COMMON] unsigned char 
  4633 ;; Return value:  Size  Location     Type
  4634 ;;                  1    wreg      void 
  4635 ;; Registers used:
  4636 ;;		wreg, status,2, status,0
  4637 ;; Tracked objects:
  4638 ;;		On entry : 0/0
  4639 ;;		On exit  : 0/0
  4640 ;;		Unchanged: 0/0
  4641 ;; Data sizes:     COMMON   BANK0   BANK1   BANK3   BANK2
  4642 ;;      Params:         1       0       0       0       0
  4643 ;;      Locals:         1       0       0       0       0
  4644 ;;      Temps:          2       0       0       0       0
  4645 ;;      Totals:         4       0       0       0       0
  4646 ;;Total ram usage:        4 bytes
  4647 ;; Hardware stack levels used: 1
  4648 ;; Hardware stack levels required when called: 1
  4649 ;; This function calls:
  4650 ;;		Nothing
  4651 ;; This function is called by:
  4652 ;;		_clear_screen
  4653 ;;		_init_display_controller
  4654 ;;		_clcd_putch
  4655 ;;		_clcd_print
  4656 ;; This function uses a non-reentrant model
  4657 ;;
  4658                           
  4659     0F7D                     _clcd_write:	
  4660                           ;psect for function _clcd_write
  4661                           
  4662                           
  4663                           ;incstack = 0
  4664                           ; Regs used in _clcd_write: [wreg+status,2+status,0]
  4665                           ;clcd_write@byte stored from wreg
  4666     0F7D  00F5               	movwf	clcd_write@byte
  4667     0F7E                     l2320:
  4668                           
  4669                           ;clcd.c: 4:  void clcd_write(unsigned char byte, unsigned char mode);clcd.c: 5: {;clcd.c
      +                          : 6:     RE2 = (__bit)mode;
  4670     0F7E  1872               	btfsc	clcd_write@mode,0
  4671     0F7F  2F81               	goto	u1851
  4672     0F80  2F85               	goto	u1850
  4673     0F81                     u1851:
  4674     0F81  1283               	bcf	3,5	;RP0=0, select bank0
  4675     0F82  1303               	bcf	3,6	;RP1=0, select bank0
  4676     0F83  1509               	bsf	9,2	;volatile
  4677     0F84  2F88               	goto	u1864
  4678     0F85                     u1850:
  4679     0F85  1283               	bcf	3,5	;RP0=0, select bank0
  4680     0F86  1303               	bcf	3,6	;RP1=0, select bank0
  4681     0F87  1109               	bcf	9,2	;volatile
  4682     0F88                     u1864:
  4683     0F88                     l2322:
  4684                           
  4685                           ;clcd.c: 8:     PORTD = byte & 0xF0;
  4686     0F88  0875               	movf	clcd_write@byte,w
  4687     0F89  39F0               	andlw	240
  4688     0F8A  0088               	movwf	8	;volatile
  4689     0F8B                     l2324:
  4690                           
  4691                           ;clcd.c: 9:     RE1 = 1;
  4692     0F8B  1489               	bsf	9,1	;volatile
  4693     0F8C                     l2326:
  4694                           
  4695                           ;clcd.c: 10:     _delay((unsigned long)((100)*(20000000/4000000.0)));
  4696     0F8C  30A6               	movlw	166
  4697     0F8D  00F3               	movwf	??_clcd_write
  4698     0F8E                     u2527:
  4699     0F8E  0BF3               	decfsz	??_clcd_write,f
  4700     0F8F  2F8E               	goto	u2527
  4701     0F90  0000               	nop
  4702     0F91                     l2328:
  4703                           
  4704                           ;clcd.c: 11:     RE1 = 0;
  4705     0F91  1283               	bcf	3,5	;RP0=0, select bank0
  4706     0F92  1303               	bcf	3,6	;RP1=0, select bank0
  4707     0F93  1089               	bcf	9,1	;volatile
  4708     0F94                     l2330:
  4709                           
  4710                           ;clcd.c: 13:     PORTD = (unsigned char)((byte & 0x0F) << 4);
  4711     0F94  0875               	movf	clcd_write@byte,w
  4712     0F95  390F               	andlw	15
  4713     0F96  00F3               	movwf	??_clcd_write
  4714     0F97  3003               	movlw	3
  4715     0F98                     u1875:
  4716     0F98  1003               	clrc
  4717     0F99  0DF3               	rlf	??_clcd_write,f
  4718     0F9A  3EFF               	addlw	-1
  4719     0F9B  1D03               	skipz
  4720     0F9C  2F98               	goto	u1875
  4721     0F9D  1003               	clrc
  4722     0F9E  0D73               	rlf	??_clcd_write,w
  4723     0F9F  0088               	movwf	8	;volatile
  4724     0FA0                     l2332:
  4725                           
  4726                           ;clcd.c: 14:     RE1 = 1;
  4727     0FA0  1489               	bsf	9,1	;volatile
  4728     0FA1                     l2334:
  4729                           
  4730                           ;clcd.c: 15:     _delay((unsigned long)((100)*(20000000/4000000.0)));
  4731     0FA1  30A6               	movlw	166
  4732     0FA2  00F3               	movwf	??_clcd_write
  4733     0FA3                     u2537:
  4734     0FA3  0BF3               	decfsz	??_clcd_write,f
  4735     0FA4  2FA3               	goto	u2537
  4736     0FA5  0000               	nop
  4737     0FA6                     l2336:
  4738                           
  4739                           ;clcd.c: 16:     RE1 = 0;
  4740     0FA6  1283               	bcf	3,5	;RP0=0, select bank0
  4741     0FA7  1303               	bcf	3,6	;RP1=0, select bank0
  4742     0FA8  1089               	bcf	9,1	;volatile
  4743     0FA9                     l2338:
  4744                           
  4745                           ;clcd.c: 18:     _delay((unsigned long)((4100)*(20000000/4000000.0)));
  4746     0FA9  301B               	movlw	27
  4747     0FAA  00F4               	movwf	??_clcd_write+1
  4748     0FAB  309E               	movlw	158
  4749     0FAC  00F3               	movwf	??_clcd_write
  4750     0FAD                     u2547:
  4751     0FAD  0BF3               	decfsz	??_clcd_write,f
  4752     0FAE  2FAD               	goto	u2547
  4753     0FAF  0BF4               	decfsz	??_clcd_write+1,f
  4754     0FB0  2FAD               	goto	u2547
  4755     0FB1  0000               	nop
  4756     0FB2                     l181:
  4757     0FB2  0008               	return
  4758     0FB3                     __end_of_clcd_write:
  4759                           
  4760                           	psect	text20
  4761     0F48                     __ptext20:	
  4762 ;; *************** function _isr *****************
  4763 ;; Defined at:
  4764 ;;		line 6 in file "isr.c"
  4765 ;; Parameters:    Size  Location     Type
  4766 ;;		None
  4767 ;; Auto vars:     Size  Location     Type
  4768 ;;		None
  4769 ;; Return value:  Size  Location     Type
  4770 ;;                  1    wreg      void 
  4771 ;; Registers used:
  4772 ;;		wreg, status,2, status,0
  4773 ;; Tracked objects:
  4774 ;;		On entry : 0/0
  4775 ;;		On exit  : 0/0
  4776 ;;		Unchanged: 0/0
  4777 ;; Data sizes:     COMMON   BANK0   BANK1   BANK3   BANK2
  4778 ;;      Params:         0       0       0       0       0
  4779 ;;      Locals:         0       0       0       0       0
  4780 ;;      Temps:          2       0       0       0       0
  4781 ;;      Totals:         2       0       0       0       0
  4782 ;;Total ram usage:        2 bytes
  4783 ;; Hardware stack levels used: 1
  4784 ;; This function calls:
  4785 ;;		Nothing
  4786 ;; This function is called by:
  4787 ;;		Interrupt level 1
  4788 ;; This function uses a non-reentrant model
  4789 ;;
  4790                           
  4791     0F48                     _isr:	
  4792                           ;psect for function _isr
  4793                           
  4794     0F48                     i1l2250:
  4795                           
  4796                           ;isr.c: 8:     static unsigned int count = 0;;isr.c: 10:     if (TMR2IF == 1)
  4797     0F48  1283               	bcf	3,5	;RP0=0, select bank0
  4798     0F49  1303               	bcf	3,6	;RP1=0, select bank0
  4799     0F4A  1C8C               	btfss	12,1	;volatile
  4800     0F4B  2F4D               	goto	u180_21
  4801     0F4C  2F4E               	goto	u180_20
  4802     0F4D                     u180_21:
  4803     0F4D  2F76               	goto	i1l292
  4804     0F4E                     u180_20:
  4805     0F4E                     i1l2252:
  4806                           
  4807                           ;isr.c: 11:     {;isr.c: 12:         if (++count == 1250)
  4808     0F4E  3001               	movlw	1
  4809     0F4F  07B2               	addwf	isr@count,f
  4810     0F50  1803               	skipnc
  4811     0F51  0AB3               	incf	isr@count+1,f
  4812     0F52  3000               	movlw	0
  4813     0F53  07B3               	addwf	isr@count+1,f
  4814     0F54  30E2               	movlw	226
  4815     0F55  0632               	xorwf	isr@count,w
  4816     0F56  3004               	movlw	4
  4817     0F57  1903               	skipnz
  4818     0F58  0633               	xorwf	isr@count+1,w
  4819     0F59  1D03               	btfss	3,2
  4820     0F5A  2F5C               	goto	u181_21
  4821     0F5B  2F5D               	goto	u181_20
  4822     0F5C                     u181_21:
  4823     0F5C  2F75               	goto	i1l2268
  4824     0F5D                     u181_20:
  4825     0F5D                     i1l2254:
  4826                           
  4827                           ;isr.c: 13:         {;isr.c: 14:             count = 0;
  4828     0F5D  01B2               	clrf	isr@count
  4829     0F5E  01B3               	clrf	isr@count+1
  4830     0F5F                     i1l2256:
  4831                           
  4832                           ;isr.c: 15:             if(sec>0)
  4833     0F5F  0840               	movf	_sec,w
  4834     0F60  1903               	btfsc	3,2
  4835     0F61  2F63               	goto	u182_21
  4836     0F62  2F64               	goto	u182_20
  4837     0F63                     u182_21:
  4838     0F63  2F67               	goto	i1l2260
  4839     0F64                     u182_20:
  4840     0F64                     i1l2258:
  4841                           
  4842                           ;isr.c: 16:             {;isr.c: 17:                 sec--;
  4843     0F64  3001               	movlw	1
  4844     0F65  02C0               	subwf	_sec,f
  4845                           
  4846                           ;isr.c: 18:             }
  4847     0F66  2F75               	goto	i1l2268
  4848     0F67                     i1l2260:
  4849     0F67  0840               	movf	_sec,w
  4850     0F68  1D03               	btfss	3,2
  4851     0F69  2F6B               	goto	u183_21
  4852     0F6A  2F6C               	goto	u183_20
  4853     0F6B                     u183_21:
  4854     0F6B  2F75               	goto	i1l2268
  4855     0F6C                     u183_20:
  4856     0F6C                     i1l2262:
  4857     0F6C  083F               	movf	_min,w
  4858     0F6D  1903               	btfsc	3,2
  4859     0F6E  2F70               	goto	u184_21
  4860     0F6F  2F71               	goto	u184_20
  4861     0F70                     u184_21:
  4862     0F70  2F75               	goto	i1l2268
  4863     0F71                     u184_20:
  4864     0F71                     i1l2264:
  4865                           
  4866                           ;isr.c: 20:             {;isr.c: 21:                 min--;
  4867     0F71  3001               	movlw	1
  4868     0F72  02BF               	subwf	_min,f
  4869     0F73                     i1l2266:
  4870                           
  4871                           ;isr.c: 22:                 sec=59;
  4872     0F73  303B               	movlw	59
  4873     0F74  00C0               	movwf	_sec
  4874     0F75                     i1l2268:
  4875                           
  4876                           ;isr.c: 27:         TMR2IF = 0;
  4877     0F75  108C               	bcf	12,1	;volatile
  4878     0F76                     i1l292:
  4879     0F76  0871               	movf	??_isr+1,w
  4880     0F77  008A               	movwf	10
  4881     0F78  0E70               	swapf	??_isr,w
  4882     0F79  0083               	movwf	3
  4883     0F7A  0EFE               	swapf	btemp,f
  4884     0F7B  0E7E               	swapf	btemp,w
  4885     0F7C  0009               	retfie
  4886     0F7D                     __end_of_isr:
  4887     007E                     btemp	set	126	;btemp
  4888     007E                     wtemp0	set	126
  4889                           
  4890                           	psect	intentry
  4891     0004                     __pintentry:	
  4892                           ;incstack = 0
  4893                           ; Regs used in _isr: [wreg+status,2+status,0]
  4894                           
  4895     0004                     interrupt_function:
  4896     007E                     saved_w	set	btemp
  4897     0004  00FE               	movwf	btemp
  4898     0005  0E03               	swapf	3,w
  4899     0006  00F0               	movwf	??_isr
  4900     0007  080A               	movf	10,w
  4901     0008  00F1               	movwf	??_isr+1
  4902     0009  120A  158A  2F48   	ljmp	_isr
  4903                           
  4904                           	psect	config
  4905                           
  4906                           ;Config register CONFIG @ 0x2007
  4907                           ;	Oscillator Selection bits
  4908                           ;	FOSC = 0x3, unprogrammed default
  4909                           ;	Watchdog Timer Enable bit
  4910                           ;	WDTE = OFF, WDT disabled
  4911                           ;	Power-up Timer Enable bit
  4912                           ;	PWRTE = 0x1, unprogrammed default
  4913                           ;	Brown-out Reset Enable bit
  4914                           ;	BOREN = 0x1, unprogrammed default
  4915                           ;	Low-Voltage (Single-Supply) In-Circuit Serial Programming Enable bit
  4916                           ;	LVP = 0x1, unprogrammed default
  4917                           ;	Data EEPROM Memory Code Protection bit
  4918                           ;	CPD = 0x1, unprogrammed default
  4919                           ;	Flash Program Memory Write Enable bits
  4920                           ;	WRT = 0x3, unprogrammed default
  4921                           ;	In-Circuit Debugger Mode bit
  4922                           ;	DEBUG = 0x1, unprogrammed default
  4923                           ;	Flash Program Memory Code Protection bit
  4924                           ;	CP = 0x1, unprogrammed default
  4925     2007                     	org	8199
  4926     2007  3FFB               	dw	16379

Data Sizes:
    Strings     237
    Constant    0
    Data        3
    BSS         15
    Persistent  0
    Stack       0

Auto Spaces:
    Space          Size  Autos    Used
    COMMON           14     11      12
    BANK0            80     18      35
    BANK1            80      0       0
    BANK3            96      0       0
    BANK2            96      0       0

Pointer List with Targets:

    clcd_print@str	PTR const unsigned char  size(1) Largest target is 17
		 -> STR_1(CODE[17]), STR_10(CODE[8]), STR_11(CODE[17]), STR_12(CODE[17]), 
		 -> STR_13(CODE[15]), STR_14(CODE[9]), STR_15(CODE[17]), STR_16(CODE[15]), 
		 -> STR_17(CODE[12]), STR_18(CODE[4]), STR_19(CODE[17]), STR_2(CODE[10]), 
		 -> STR_20(CODE[7]), STR_21(CODE[17]), STR_22(CODE[3]), STR_23(CODE[3]), 
		 -> STR_3(CODE[16]), STR_4(CODE[9]), STR_5(CODE[8]), STR_6(CODE[14]), 
		 -> STR_7(CODE[8]), STR_8(CODE[8]), STR_9(CODE[13]), 


Critical Paths under _main in COMMON

    _time_display_screen->_clcd_putch
    _set_time->_clcd_putch
    _set_temp->_clcd_putch
    _clear_screen->_clcd_write
    ___awmod->___awdiv
    _read_matrix_keypad->_scan_keypad
    _power_on_screen->_clcd_putch
    _clcd_putch->___awdiv
    _menu_display_screen->_clcd_print
    _clcd_print->_clcd_write
    _init_clcd->_init_display_controller
    _init_display_controller->_clcd_write

Critical Paths under _isr in COMMON

    None.

Critical Paths under _main in BANK0

    _main->_set_temp
    _main->_set_time
    _time_display_screen->_clcd_putch
    _set_time->_clcd_putch
    _set_temp->_clcd_putch
    _power_on_screen->_clcd_putch
    _clcd_putch->___awmod

Critical Paths under _isr in BANK0

    None.

Critical Paths under _main in BANK1

    None.

Critical Paths under _isr in BANK1

    None.

Critical Paths under _main in BANK3

    None.

Critical Paths under _isr in BANK3

    None.

Critical Paths under _main in BANK2

    None.

Critical Paths under _isr in BANK2

    None.

Call Graph Tables:

 ---------------------------------------------------------------------------------
 (Depth) Function   	        Calls       Base Space   Used Autos Params    Refs
 ---------------------------------------------------------------------------------
 (0) _main                                                 6     6      0   53873
                                             12 BANK0      6     6      0
                         _clcd_print
                       _clear_screen
                        _init_config
                _menu_display_screen
                    _power_on_screen
                 _read_matrix_keypad
                           _set_temp
                           _set_time
                _time_display_screen
 ---------------------------------------------------------------------------------
 (1) _time_display_screen                                  3     3      0   11342
                                              7 BANK0      3     3      0
                            ___awdiv
                            ___awmod
                         _clcd_print
                         _clcd_putch
                       _clear_screen
 ---------------------------------------------------------------------------------
 (1) _set_time                                             5     3      2   12093
                                              7 BANK0      5     3      2
                            ___awdiv
                            ___awmod
                             ___bmul
                         _clcd_print
                         _clcd_putch
                       _clear_screen
 ---------------------------------------------------------------------------------
 (1) _set_temp                                             5     3      2   11972
                                              7 BANK0      5     3      2
                            ___awdiv
                            ___awmod
                             ___bmul
                         _clcd_print
                         _clcd_putch
                       _clear_screen
 ---------------------------------------------------------------------------------
 (2) _clear_screen                                         2     2      0    1173
                                              6 COMMON     2     2      0
                         _clcd_write
 ---------------------------------------------------------------------------------
 (2) ___bmul                                               3     2      1     320
                                              2 COMMON     3     2      1
 ---------------------------------------------------------------------------------
 (2) ___awmod                                              6     2      4    1873
                                              0 BANK0      6     2      4
                            ___awdiv (ARG)
 ---------------------------------------------------------------------------------
 (2) ___awdiv                                              8     4      4    1364
                                              2 COMMON     8     4      4
 ---------------------------------------------------------------------------------
 (1) _read_matrix_keypad                                   2     2      0     272
                                              4 COMMON     2     2      0
                        _scan_keypad
 ---------------------------------------------------------------------------------
 (2) _scan_keypad                                          2     2      0     161
                                              2 COMMON     2     2      0
 ---------------------------------------------------------------------------------
 (1) _power_on_screen                                      4     4      0    7062
                                              7 BANK0      4     4      0
                         _clcd_print
                         _clcd_putch
 ---------------------------------------------------------------------------------
 (2) _clcd_putch                                           2     1      1    2765
                                             10 COMMON     1     1      0
                                              6 BANK0      1     0      1
                            ___awdiv (ARG)
                            ___awmod (ARG)
                         _clcd_write
 ---------------------------------------------------------------------------------
 (1) _menu_display_screen                                  0     0      0    4167
                         _clcd_print
 ---------------------------------------------------------------------------------
 (2) _clcd_print                                           2     1      1    4167
                                              6 COMMON     2     1      1
                         _clcd_write
 ---------------------------------------------------------------------------------
 (1) _init_config                                          0     0      0    1173
                          _init_clcd
                 _init_matrix_keypad
                        _init_timer2
 ---------------------------------------------------------------------------------
 (2) _init_timer2                                          0     0      0       0
 ---------------------------------------------------------------------------------
 (2) _init_matrix_keypad                                   0     0      0       0
 ---------------------------------------------------------------------------------
 (2) _init_clcd                                            0     0      0    1173
            _init_display_controller
 ---------------------------------------------------------------------------------
 (3) _init_display_controller                              2     2      0    1173
                                              6 COMMON     2     2      0
                         _clcd_write
 ---------------------------------------------------------------------------------
 (3) _clcd_write                                           4     3      1    1173
                                              2 COMMON     4     3      1
 ---------------------------------------------------------------------------------
 Estimated maximum stack depth 3
 ---------------------------------------------------------------------------------
 (Depth) Function   	        Calls       Base Space   Used Autos Params    Refs
 ---------------------------------------------------------------------------------
 (5) _isr                                                  2     2      0       0
                                              0 COMMON     2     2      0
 ---------------------------------------------------------------------------------
 Estimated maximum stack depth 5
 ---------------------------------------------------------------------------------

 Call Graph Graphs:

 _main (ROOT)
   _clcd_print
     _clcd_write
   _clear_screen
     _clcd_write
   _init_config
     _init_clcd
       _init_display_controller
         _clcd_write
     _init_matrix_keypad
     _init_timer2
   _menu_display_screen
     _clcd_print
   _power_on_screen
     _clcd_print
     _clcd_putch
       ___awdiv (ARG)
       ___awmod (ARG)
         ___awdiv (ARG)
       _clcd_write (ARG)
   _read_matrix_keypad
     _scan_keypad
   _set_temp
     ___awdiv
     ___awmod
     ___bmul
     _clcd_print
     _clcd_putch
     _clear_screen
   _set_time
     ___awdiv
     ___awmod
     ___bmul
     _clcd_print
     _clcd_putch
     _clear_screen
   _time_display_screen
     ___awdiv
     ___awmod
     _clcd_print
     _clcd_putch
     _clear_screen

 _isr (ROOT)

 Address spaces:
Name               Size   Autos  Total    Cost      Usage
BANK3               60      0       0       9        0.0%
BITBANK3            60      0       0       8        0.0%
SFR3                 0      0       0       4        0.0%
BITSFR3              0      0       0       4        0.0%
BANK2               60      0       0      11        0.0%
BITBANK2            60      0       0      10        0.0%
SFR2                 0      0       0       5        0.0%
BITSFR2              0      0       0       5        0.0%
BANK1               50      0       0       7        0.0%
BITBANK1            50      0       0       6        0.0%
SFR1                 0      0       0       2        0.0%
BITSFR1              0      0       0       2        0.0%
BANK0               50     12      23       5       43.8%
BITBANK0            50      0       0       4        0.0%
SFR0                 0      0       0       1        0.0%
BITSFR0              0      0       0       1        0.0%
COMMON               E      B       C       1       85.7%
BITCOMMON            E      0       0       0        0.0%
CODE                 0      0       0       0        0.0%
DATA                 0      0      2F      12        0.0%
ABS                  0      0      2F       3        0.0%
NULL                 0      0       0       0        0.0%
STACK                0      0       0       2        0.0%
EEDATA             100      0       0       0        0.0%


Microchip Technology PIC Macro Assembler V2.45 build 20230818022343 
Symbol Table                                                                                   Tue Oct 17 02:18:17 2023

                              pc 0002                   ___bmul@product 0073                   clcd_print@addr 0076  
                             l53 0EDB                               l61 020C                               l88 029A  
                             l89 02A1                     ___awdiv@sign 0077                               fsr 0004  
             _init_matrix_keypad 0E8A                              l100 06C7                              l111 0FFF  
                            l103 0EAA                              l106 0EFC                              l135 0193  
                            l240 0746                              l232 070F                              l224 06E0  
                            l241 0752                              l233 0717                              l225 06E8  
                            l242 074C                              l234 0723                              l226 0782  
                            l219 0E99                              l235 071D                              l227 06F4  
                            l228 06EE                              l404 07FE                              l164 0434  
                            l181 0FB2                              l190 0EBD                              l246 076D  
                            l247 0775                              l239 073E                              l184 0497  
                            l249 077B                              l257 0F1F                              l274 04FF  
                            l187 0E89                              l531 07E9                              l196 0F47  
                            l544 04F2                              _GIE 005F                              _RB0 0030  
                            _RB1 0031                              _RB2 0032                              _RC1 0039  
                            _RC2 003A                              _RD0 0040                              _RD1 0041  
                            _RD2 0042                              _RE1 0049                              _RD3 0043  
                            _RE2 004A                              _PR2 0092                              u970 06E0  
                            u971 06DF                              u980 06E6                              u981 06E5  
                            u990 06EC                              u991 06EB                              _min 003F  
                            _sec 0040                              _isr 0F48                   clcd_putch@addr 0026  
                            fsr0 0004                   clcd_putch@data 007A                     ___awmod@sign 0025  
            ?_init_matrix_keypad 0070                             l2320 0F7E                             l2400 04B5  
                           l2330 0F94                             l2322 0F88                             l2410 04D1  
                           l2402 04B8                             l2332 0FA0                             l2324 0F8B  
                           l2340 0435                             l1700 0702                             l2420 04EE  
                           l2412 04D7                             l2404 04BF                             l2500 0366  
                           l2334 0FA1                             l2326 0F8C                             l2350 0460  
                           l2342 043D                             l2430 0ED3                             l1702 0715  
                           l2414 04DE                             l2406 04C3                             l2510 037A  
                           l2502 036B                             l2336 0FA6                             l2328 0F91  
                           l2360 048B                             l2352 0463                             l2344 0444  
                           l1640 0E93                             l2432 0ED4                             l2424 0EBE  
                           l1800 0793                             l2408 04C7                             l2416 04E4  
                           l2600 0112                             l2520 0391                             l2512 0380  
                           l2504 036C                             l2338 0FA9                             l2362 0492  
                           l2354 046A                             l2346 0454                             l2370 0E84  
                           l1642 0E96                             l1650 04F7                             l2434 0ED5  
                           l2426 0EC8                             l2450 0FDB                             l1714 0721  
                           l1810 07A7                             l1802 0798                             l2418 04E9  
                           l2610 0167                             l2602 011F                             l2530 03ED  
                           l2522 0392                             l2514 0381                             l2506 036F  
                           l2356 0476                             l2348 0459                             l2364 0E7F  
                           l1644 0E97                             l1636 0E8A                             l1652 04FB  
                           l2436 0ED8                             l2428 0ECB                             l2380 0F37  
                           l2452 0FE1                             l2444 0FB6                             l1740 0750  
                           l1724 072B                             l1708 071B                             l1900 0F15  
                           l1820 07CD                             l1812 07AE                             l1804 079C  
                           l2372 0E9A                             l2604 0121                             l2612 0184  
                           l2524 03AB                             l2532 040A                             l2508 0375  
                           l2516 0382                             l2460 02EA                             l2620 0616  
                           l2358 047B                             l2366 0E82                             l1646 0E98  
                           l1638 0E92                             l1654 04FC                             l2382 0F3B  
                           l2454 0FF1                             l2446 0FCA                             l2438 0FB3  
                           l1750 075A                             l1734 074A                             l1726 0731  
                           l1718 0727                             l1670 06C8                             l1910 0F1C  
                           l1830 07E5                             l1822 07CE                             l1814 07B2  
                           l1806 079E                             l2390 049F                             l2374 0EA1  
                           l2614 018B                             l2606 0122                             l2550 003E  
                           l2542 0424                             l2526 03C8                             l2518 038F  
                           l2470 030A                             l2462 02F1                             l2630 067D  
                           l2622 0633                             l2710 0224                             l2702 020D  
                           l2368 0E83                             l1648 04F3                             l2376 0F21  
                           l2456 0EDC                             l2384 0EAC                             l2448 0FD5  
                           l1760 0779                             l1752 0760                             l1744 0756  
                           l1728 0744                             l1672 06CE                             l1912 0F1E  
                           l1824 07D5                             l1816 07B6                             l1808 07A4  
                           l2392 04A4                             l2608 013B                             l2552 0044  
                           l2560 005E                             l2536 0412                             l2528 03D2  
                           l2480 0329                             l2464 02F8                             l2472 0312  
                           l2640 069E                             l2632 0685                             l2624 063D  
                           l2616 05F3                             l2720 023D                             l2712 022A  
                           l2704 0214                             l2378 0F29                             l1770 0781  
                           l1754 0773                             l1682 06EC                             l1674 06D2  
                           l1818 07C7                             l1826 07DB                             l2394 04A6  
                           l2386 0498                             l2570 007B                             l2562 0066  
                           l2554 0046                             l2538 041B                             l2490 0349  
                           l2482 032F                             l2474 031A                             l2466 02FA  
                           l2458 02E9                             l2650 06BB                             l2642 06A6  
                           l2634 068D                             l2626 0658                             l2618 05FB  
                           l2730 0255                             l2722 0243                             l2714 022E  
                           l2706 021A                             l1692 06F8                             l1676 06E6  
                           l1908 0F17                             l1828 07E0                             l2396 04AA  
                           l2388 049B                             l1780 07F4                             l2580 009C  
                           l2564 006C                             l2572 0088                             l2556 004E  
                           l2548 0037                             l2492 0355                             l2484 033B  
                           l2476 0320                             l2468 0302                             l2652 06BC  
                           l2644 06A9                             l2636 0694                             l2628 0675  
                           l2740 026D                             l2732 0257                             l2708 0220  
                           l2716 0232                             l2660 01A2                             l1766 077F  
                           l1790 0783                             l2398 04AF                             l1782 07F6  
                           l1774 07EB                             l2590 00F9                             l2582 00A4  
                           l2574 008E                             l2566 0071                             l2558 0056  
                           l2486 033D                             l2478 0325                             l2494 0358  
                           l2654 06C1                             l2646 06B7                             l2638 0699  
                           l2822 02B0                             l2750 029C                             l2742 0273  
                           l2734 025C                             l2718 0238                             l2726 0248  
                           l2670 01C3                             l2662 01A9                             l1688 06F2  
                           l1792 0784                             l1784 07F8                             l1776 07EC  
                           l2592 0100                             l2584 00AC                             l2576 0091  
                           l2568 0075                             l2824 042C                             l2496 035E  
                           l2488 0343                             l2648 06BA                             l2760 02D4  
                           l2752 02A4                             l2744 027E                             l2736 0261  
                           l2728 024F                             l2680 01E6                             l2672 01D1  
                           l2664 01AE                             l2656 0194                             l1698 06FC  
                           l1890 0F09                             l1794 0788                             l1786 07FD  
                           l1778 07F0                             l2594 0105                             l2586 00B0  
                           l2578 0097                             l2498 0363                             l2762 02D9  
                           l2746 0289                             l2738 0267                             l2690 0202  
                           l2682 01ED                             l2666 01B6                             l2674 01D7  
                           l2658 0199                             l1796 078D                             l2596 010A  
                           l2588 00B2                             l2764 02DE                             l2748 0294  
                           l2692 0204                             l2684 01F3                             l2676 01DD  
                           l2756 02A9                             l2668 01BB                             l1886 0EFE  
                           l1798 078F                             l2598 010E                             l2758 02CD  
                           l2694 0205                             l2678 01E1                             l1896 0F0B  
                           l1888 0F04                             l2696 0206                             l2688 01FC  
                           l1898 0F10                             l2698 0207                             ?_isr 0070  
                           STR_1 0517                             STR_2 05B0                             STR_3 055B  
                           STR_4 05C3                             STR_5 05DC                             STR_6 0589  
                           STR_7 05D4                             STR_8 05CC                             STR_9 0597  
                           u1000 06F2                             u1001 06F1                             u1010 070F  
                           u1011 070E                             u1100 0773                             u1020 0715  
                           u1101 0772                             u1021 0714                             u1110 0779  
                           u1030 071B                             u1111 0778                             u1031 071A  
                           u1015 070B                             u1120 077F                             u1040 0721  
                           u2000 031A                             u1121 077E                             u1041 0720  
                           u2001 0319                             u1050 073E                             u1210 07C7  
                           u1130 07F0                             u2010 0320                             u1051 073D  
                           u1211 07C6                             u1131 07EF                             u2011 031F  
                           u1060 0744                             u1140 07FD                             u2100 038F  
                           u2020 0325                             u1061 0743                             u1205 07B7  
                           u1141 07FC                             u2101 038E                             u2021 0324  
                           u1070 074A                             u1230 07DB                             u1150 0788  
                           u2110 0411                             u2030 032F                             u1071 0749  
                           u1055 073A                             u1231 07DA                             u1215 07C3  
                           u1151 0787                             u2111 0410                             u2031 032E  
                           u1080 0750                             u1240 07E0                             u1160 0793  
                           u2200 0105                             u2120 003E                             u2040 0343  
                           u1081 074F                             u1241 07DF                             u1225 07CF  
                           u1161 0792                             u2201 0104                             u2121 003D  
                           u2041 0342                             u1090 076D                             u1170 07A4  
                           u2210 011F                             u2130 0066                             u2050 0349  
                           u1091 076C                             u1171 07A3                             u2211 011E  
                           u2131 0065                             u2051 0348                             u1340 0F09  
                           u2220 018B                             u2140 006C                             u2060 035E  
                           u2300 0214                             u1341 0F08                             u2221 018A  
                           u2141 006B                             u2061 035D                             u2301 0213  
                           u1350 0F10                             u1190 07B6                             u2150 0071  
                           u2070 0363                             u2230 0694                             u2310 021A  
                           u1095 0769                             u1351 0F0F                             u1191 07B5  
                           u2151 0070                             u2071 0362                             u2231 0693  
                           u2311 0219                             u1360 0F15                             u2160 007B  
                           u2080 036B                             u2240 0699                             u2320 0220  
                           u1361 0F14                             u1185 07A8                             u2161 007A  
                           u2081 036A                             u2241 0698                             u2321 021F  
                           u1370 0F1C                             u2170 008E                             u2090 0375  
                           u2330 022A                             u2250 01A9                             u1371 0F1B  
                           u2171 008D                             u2091 0374                             u2331 0229  
                           u2251 01A8                             u2180 0097                             u2340 0238  
                           u2260 01AE                             u2181 0096                             u2341 0237  
                           u2261 01AD                             u2190 0100                             u2350 0243  
                           u2270 01DD                             u2191 00FF                             u2351 0242  
                           u2271 01DC                             u2407 01CB                             u2360 024F  
                           u2280 01F3                             u2417 06B1                             u2361 024E  
                           u2281 01F2                             u2370 0255                             u2290 0202  
                           u2507 0486                             u2427 0EA5                             u2371 0254  
                           u2291 0201                             u1900 04AA                             u2380 02D4  
                           u2517 0494                             u2437 0FD0                             u1901 04A9  
                           u2381 02D3                             u1910 04B5                             u2390 02DE  
                           u2527 0F8E                             u2447 0FF9                             u1911 04B4  
                           u2391 02DD                             u2537 0FA3                             u2457 0439  
                           u1850 0F85                             u1930 04C7                             u2547 0FAD  
                           u1851 0F81                             u2467 0448                             u1931 04C6  
                           u1940 04D1                             u2477 0456                             u1941 04D0  
                           u1925 04B9                             u2487 046C                             u1864 0F88  
                           u1880 0F47                             u1960 04E4                             u2497 0478  
                           u1881 0F46                             u1961 04E3                             u1945 04CD  
                           u1970 04E9                             u1890 049F                             u1875 0F98  
                           u1971 04E8                             u1955 04D8                             u1891 049E  
                           _PEIE 005E                             u1980 0FE1                             u1981 0FE0  
                           u1990 02F1                             u1991 02F0                             _flag 003E  
                           _main 0194                             btemp 007E              _menu_display_screen 0EDC  
                           start 000C                ___bmul@multiplier 0074             ??_init_matrix_keypad 0072  
                 clcd_write@byte 0075                   clcd_write@mode 0072          __end_of_power_on_screen 1000  
                          ??_isr 0070                            ?_main 0070                  __end_of___awdiv 07EA  
                          STR_10 05E4                            STR_11 0506                            STR_20 05EC  
                          STR_12 0528                            STR_21 054A                            STR_13 056B  
                          STR_22 0514                            STR_14 05BA                            STR_23 0514  
                          STR_15 054A                            STR_16 057A                            STR_17 05A4  
                          STR_18 0513                            STR_19 0539                  __end_of___awmod 04F3  
                ___awdiv@divisor 0072                            i1l292 0F76                     ?_init_config 0070  
           ?_menu_display_screen 0070                  ___awdiv@counter 0076                            _PORTD 0008  
                          _TRISB 0086                            _TRISD 0088                     ?_init_timer2 0070  
           __end_of_clear_screen 0EAB                            _nRBPU 040F               _read_matrix_keypad 0EFD  
                          pclath 000A              ?_read_matrix_keypad 0070                            status 0003  
                          wtemp0 007E                     ?_scan_keypad 0070                  __initialization 000F  
                   __end_of_main 02E6             ??_read_matrix_keypad 0074                           ??_main 002C  
          ??_menu_display_screen 0078                 ___awdiv@dividend 0074                           i1l2250 0F48  
                         i1l2260 0F67                           i1l2252 0F4E                           i1l2262 0F6C  
                         i1l2254 0F5D                           i1l2264 0F71                           i1l2256 0F5F  
                         i1l2266 0F73                           i1l2258 0F64                           i1l2268 0F75  
                         u180_20 0F4E                           u180_21 0F4D                           u181_20 0F5D  
                         u181_21 0F5C                           u182_20 0F64                           u182_21 0F63  
                         u183_20 0F6C                           u183_21 0F6B                           u184_20 0F71  
                         u184_21 0F70                           _TMR2IE 0461                           _TMR2IF 0061  
                         _TMR2ON 0092                           _TRISC1 0439                           _TRISC2 043A  
                         _TRISE1 0449                           _TRISE2 044A                           ___bmul 07EA  
        _init_display_controller 0435                        ??___awdiv 0076                 ?_power_on_screen 0070  
                      ??___awmod 007A                 ___awdiv@quotient 0078                  ___awmod@divisor 0020  
                ___awmod@counter 0024                     __pdataCOMMON 007B                 __end_of_set_temp 0194  
               __end_of_set_time 0435                           saved_w 007E          __end_of__initialization 0030  
            ___bmul@multiplicand 0072                   __pcstackCOMMON 0070                     __pidataBANK0 0E7D  
            _time_display_screen 05F3                       __pbssBANK0 0032        ??_init_display_controller 0076  
                     _clcd_print 0F20                       _clcd_putch 0EAB                       _clcd_write 0F7D  
                     __pmaintext 0194                     _clear_screen 0E9A                          ?___bmul 0072  
           ?_time_display_screen 0070                       __pintentry 0004                          _T2CKPS0 0090  
                        _T2CKPS1 0091                       __stringtab 0500                        ?_set_temp 0027  
                      ?_set_time 0027            ??_time_display_screen 0027                          ___awdiv 0783  
                        ___awmod 0498                          __ptext1 05F3                          __ptext2 02E6  
                        __ptext3 0034                          __ptext4 0E9A                          __ptext5 07EA  
                        __ptext6 0498                          __ptext7 0783                          __ptext8 0EFD  
                        __ptext9 06C8  __end_of_init_display_controller 0498                __end_of_init_clcd 0E8A  
               ___awmod@dividend 0022                   main@reset_flag 002F                          main@key 0031  
           end_of_initialization 0030                      set_temp@key 002B                      set_time@key 002B  
                 _operation_flag 0041                      ?_clcd_print 0076                      ?_clcd_putch 0026  
                    ?_clcd_write 0072                       ??_set_temp 0029                       ??_set_time 0029  
    __end_of_menu_display_screen 0EFD                    clcd_print@str 0077               set_temp@reset_flag 0027  
                 __end_of___bmul 07FF                    __pidataCOMMON 07FF              start_initialization 000F  
                   scan_keypad@i 0072           read_matrix_keypad@mode 0074           read_matrix_keypad@once 007B  
                    __end_of_isr 0F7D                         ??___bmul 0073                      __pdataBANK0 0041  
                  ??_init_config 0078                    ??_init_timer2 0072                        ___latbits 0002  
                  __pcstackBANK0 0020                    ??_scan_keypad 0072                         ?___awdiv 0072  
                       ?___awmod 0020                        __pstrings 0500               set_time@reset_flag 0027  
                      _init_clcd 0E7F              __end_of_init_config 0EDC                ??_power_on_screen 0027  
            __end_of_init_timer2 0500         ?_init_display_controller 0070                interrupt_function 0004  
    __end_of_time_display_screen 06C8                     ??_clcd_print 0077                     ??_clcd_putch 007A  
     __end_of_init_matrix_keypad 0E9A                     ??_clcd_write 0073                set_temp@key_count 003D  
            __end_of_scan_keypad 0783                      __stringbase 0505               __end_of_clcd_print 0F48  
             __end_of_clcd_putch 0EBE               __end_of_clcd_write 0FB3                       ?_init_clcd 0070  
          read_matrix_keypad@key 0075                set_time@blink_pos 0039                    set_temp@blink 003C  
                  set_time@blink 0038       __end_of_read_matrix_keypad 0F20               __end_of__stringtab 0506  
              set_time@key_count 003A                      _init_config 0EBE                      _init_timer2 04F3  
                       __ptext10 0FB3                         __ptext11 0EAB                         __ptext20 0F48  
                       __ptext12 0EDC                         __ptext13 0F20                         __ptext14 0EBE  
                       __ptext15 04F3                         __ptext16 0E8A                         __ptext17 0E7F  
                       __ptext18 0435                         __ptext19 0F7D                      _scan_keypad 06C8  
                  ?_clear_screen 0070                         _set_temp 0034                         _set_time 02E6  
                       isr@count 0032                     set_temp@temp 003B                     set_temp@wait 0036  
                   set_time@wait 0034                      ??_init_clcd 0078                         intlevel1 0000  
                      stringcode 0500                   ??_clear_screen 0076                  _power_on_screen 0FB3  
                       stringdir 0500                         stringtab 0500                 power_on_screen@i 002A  
